(dp0
VnumOfWalls
p1
I24
sVwaypoints
p2
(dp3
sVsquadLeaders
p4
(dp5
sVlidarLights
p6
(dp7
VlightNumber8
p8
(dp9
VxPos
p10
V3.475
p11
sVyPos
p12
V1.112737
p13
ssVlightNumber1
p14
(dp15
VxPos
p16
V0.4229496
p17
sVyPos
p18
V1.975
p19
ssVlightNumber0
p20
(dp21
VxPos
p22
V1.475
p23
sVyPos
p24
V1.611492
p25
ssVlightNumber3
p26
(dp27
VxPos
p28
V-1.475
p29
sVyPos
p30
V1.421682
p31
ssVlightNumber2
p32
(dp33
VxPos
p34
V-0.475
p35
sVyPos
p36
V1.737418
p37
ssVlightNumber5
p38
(dp39
VxPos
p40
V-0.527541
p41
sVyPos
p42
V0.02500001
p43
ssVlightNumber4
p44
(dp45
VxPos
p46
V-2.475
p47
sVyPos
p48
V0.2834654
p49
ssVlightNumber7
p50
(dp51
VxPos
p52
V0.2316729
p53
sVyPos
p54
V0.02499998
p55
ssVlightNumber6
p56
(dp57
VxPos
p58
V-0.09233059
p59
sVyPos
p60
V0.02500001
p61
sssVleapfrogs
p62
(dp63
sVglobalData
p64
(dp65
VidCounter
p66
V5
p67
ssVnumOfLidarLights
p68
I9
sVplayer
p69
(dp70
VisHolding
p71
VFalse
p72
sVxPos
p73
V0
p74
sVheldObjID
p75
Vnothing
p76
sVyPos
p77
V0.5
p78
ssVwalls
p79
(dp80
VwallNumber21
p81
(dp82
Vwidth
p83
V7
p84
sVxPos
p85
g74
sVyPos
p86
V-2
p87
sVheight
p88
V0.05
p89
ssVwallNumber20
p90
(dp91
Vwidth
p92
g84
sVxPos
p93
g74
sVyPos
p94
V3
p95
sVheight
p96
V0.05
p97
ssVwallNumber23
p98
(dp99
Vwidth
p100
V0.05
p101
sVxPos
p102
V3.5
p103
sVyPos
p104
V0.5
p105
sVheight
p106
g67
ssVwallNumber22
p107
(dp108
Vwidth
p109
V0.05
p110
sVxPos
p111
V-3.5
p112
sVyPos
p113
V0.5
p114
sVheight
p115
g67
ssVwallNumber10
p116
(dp117
Vwidth
p118
V1
p119
sVxPos
p120
g74
sVyPos
p121
V2
p122
sVheight
p123
V0.05
p124
ssVwallNumber11
p125
(dp126
Vwidth
p127
V0.2
p128
sVxPos
p129
V-0.4
p130
sVyPos
p131
g119
sVheight
p132
V0.05
p133
ssVwallNumber12
p134
(dp135
Vwidth
p136
V0.2
p137
sVxPos
p138
V0.4
p139
sVyPos
p140
g119
sVheight
p141
V0.05
p142
ssVwallNumber13
p143
(dp144
Vwidth
p145
V0.05
p146
sVxPos
p147
V-0.5
p148
sVyPos
p149
V1.5
p150
sVheight
p151
g119
ssVwallNumber14
p152
(dp153
Vwidth
p154
V0.05
p155
sVxPos
p156
V0.5
p157
sVyPos
p158
V1.5
p159
sVheight
p160
g119
ssVwallNumber15
p161
(dp162
Vwidth
p163
g119
sVxPos
p164
g122
sVyPos
p165
g122
sVheight
p166
V0.05
p167
ssVwallNumber16
p168
(dp169
Vwidth
p170
V0.2
p171
sVxPos
p172
V1.6
p173
sVyPos
p174
g119
sVheight
p175
V0.05
p176
ssVwallNumber17
p177
(dp178
Vwidth
p179
V0.2
p180
sVxPos
p181
V2.4
p182
sVyPos
p183
g119
sVheight
p184
V0.05
p185
ssVwallNumber18
p186
(dp187
Vwidth
p188
V0.05
p189
sVxPos
p190
V1.5
p191
sVyPos
p192
V1.5
p193
sVheight
p194
g119
ssVwallNumber19
p195
(dp196
Vwidth
p197
V0.05
p198
sVxPos
p199
V2.5
p200
sVyPos
p201
V1.5
p202
sVheight
p203
g119
ssVwallNumber8
p204
(dp205
Vwidth
p206
V0.05
p207
sVxPos
p208
V-1.5
p209
sVyPos
p210
g74
sVheight
p211
g74
ssVwallNumber9
p212
(dp213
Vwidth
p214
V0.05
p215
sVxPos
p216
V-1.5
p217
sVyPos
p218
V1.3
p219
sVheight
p220
V1.4
p221
ssVwallNumber6
p222
(dp223
Vwidth
p224
g119
sVxPos
p225
V-2
p226
sVyPos
p227
g74
sVheight
p228
V0.05
p229
ssVwallNumber7
p230
(dp231
Vwidth
p232
V0.05
p233
sVxPos
p234
V-2.5
p235
sVyPos
p236
g119
sVheight
p237
g122
ssVwallNumber4
p238
(dp239
Vwidth
p240
V0.05
p241
sVxPos
p242
V2.5
p243
sVyPos
p244
V-0.5
p245
sVheight
p246
g119
ssVwallNumber5
p247
(dp248
Vwidth
p249
g119
sVxPos
p250
V-2
p251
sVyPos
p252
g122
sVheight
p253
V0.05
p254
ssVwallNumber2
p255
(dp256
Vwidth
p257
g67
sVxPos
p258
g74
sVyPos
p259
V-1
p260
sVheight
p261
V0.05
p262
ssVwallNumber3
p263
(dp264
Vwidth
p265
V0.05
p266
sVxPos
p267
V-2.5
p268
sVyPos
p269
V-0.5
p270
sVheight
p271
g119
ssVwallNumber0
p272
(dp273
Vwidth
p274
V3.3
p275
sVxPos
p276
V-0.8499999
p277
sVyPos
p278
g74
sVheight
p279
V0.05
p280
ssVwallNumber1
p281
(dp282
Vwidth
p283
V1.1
p284
sVxPos
p285
V1.95
p286
sVyPos
p287
g74
sVheight
p288
V0.05
p289
sssVnumOfSquadLeaders
p290
I0
sVcollectables
p291
(dp292
VcollectableNumber1
p293
(dp294
VxPos
p295
g74
sVspriteNum
p296
g119
sVyPos
p297
V-0.5
p298
sVlayer
p299
g74
sVcolorNum
p300
g119
sVvisible
p301
VFalse
p302
sVid
p303
g119
ssVcollectableNumber0
p304
(dp305
VxPos
p306
V-2
p307
sVspriteNum
p308
g74
sVyPos
p309
V1.5
p310
sVlayer
p311
g74
sVcolorNum
p312
g74
sVvisible
p313
VFalse
p314
sVid
p315
g74
ssVcollectableNumber3
p316
(dp317
VxPos
p318
g119
sVspriteNum
p319
g95
sVyPos
p320
V-0.5
p321
sVlayer
p322
g74
sVcolorNum
p323
g95
sVvisible
p324
VFalse
p325
sVid
p326
g95
ssVcollectableNumber2
p327
(dp328
VxPos
p329
V-2
p330
sVspriteNum
p331
g122
sVyPos
p332
V-0.5
p333
sVlayer
p334
g74
sVcolorNum
p335
g122
sVvisible
p336
VFalse
p337
sVid
p338
g122
ssVcollectableNumber4
p339
(dp340
VxPos
p341
g122
sVspriteNum
p342
V4
p343
sVyPos
p344
V-0.5
p345
sVlayer
p346
g122
sVcolorNum
p347
g343
sVvisible
p348
VTrue
p349
sVid
p350
g343
sssVnumOfWaypoints
p351
I0
sVnumOfLeapfrogs
p352
I0
sVnumOfCollectables
p353
I5
s.