(dp0
VnumOfWalls
p1
I24
sVwaypoints
p2
(dp3
sVsquadLeaders
p4
(dp5
sVlidarLights
p6
(dp7
VlightNumber10
p8
(dp9
VxPos
p10
V-0.475
p11
sVyPos
p12
V1.290533
p13
ssVlightNumber9
p14
(dp15
VxPos
p16
V0.475
p17
sVyPos
p18
V1.009375
p19
ssVlightNumber8
p20
(dp21
VxPos
p22
V0.475
p23
sVyPos
p24
V0.5837554
p25
ssVlightNumber1
p26
(dp27
VxPos
p28
V-0.9500633
p29
sVyPos
p30
V2.975
p31
ssVlightNumber0
p32
(dp33
VxPos
p34
V0.4229496
p35
sVyPos
p36
V1.975
p37
ssVlightNumber3
p38
(dp39
VxPos
p40
V-0.475
p41
sVyPos
p42
V0.4584428
p43
ssVlightNumber2
p44
(dp45
VxPos
p46
V-0.475
p47
sVyPos
p48
V0.796813
p49
ssVlightNumber5
p50
(dp51
VxPos
p52
V-0.09233059
p53
sVyPos
p54
V0.02500001
p55
ssVlightNumber4
p56
(dp57
VxPos
p58
V-0.475
p59
sVyPos
p60
V0.07230815
p61
ssVlightNumber7
p62
(dp63
VxPos
p64
V0.475
p65
sVyPos
p66
V0.2579754
p67
ssVlightNumber6
p68
(dp69
VxPos
p70
V0.2316729
p71
sVyPos
p72
V0.02499998
p73
sssVleapfrogs
p74
(dp75
sVglobalData
p76
(dp77
VidCounter
p78
V10
p79
ssVnumOfLidarLights
p80
I11
sVplayer
p81
(dp82
VisHolding
p83
VFalse
p84
sVxPos
p85
V0
p86
sVheldObjID
p87
Vnothing
p88
sVyPos
p89
V0.5
p90
ssVwalls
p91
(dp92
VwallNumber21
p93
(dp94
Vwidth
p95
V7
p96
sVxPos
p97
g86
sVyPos
p98
V-2
p99
sVheight
p100
V0.05
p101
ssVwallNumber20
p102
(dp103
Vwidth
p104
g96
sVxPos
p105
g86
sVyPos
p106
V3
p107
sVheight
p108
V0.05
p109
ssVwallNumber23
p110
(dp111
Vwidth
p112
V0.05
p113
sVxPos
p114
V3.5
p115
sVyPos
p116
V0.5
p117
sVheight
p118
V5
p119
ssVwallNumber22
p120
(dp121
Vwidth
p122
V0.05
p123
sVxPos
p124
V-3.5
p125
sVyPos
p126
V0.5
p127
sVheight
p128
g119
ssVwallNumber10
p129
(dp130
Vwidth
p131
V1
p132
sVxPos
p133
g86
sVyPos
p134
V2
p135
sVheight
p136
V0.05
p137
ssVwallNumber11
p138
(dp139
Vwidth
p140
g132
sVxPos
p141
g86
sVyPos
p142
g86
sVheight
p143
V0.05
p144
ssVwallNumber12
p145
(dp146
Vwidth
p147
V0.05
p148
sVxPos
p149
V-0.5
p150
sVyPos
p151
V0.7
p152
sVheight
p153
V1.4
p154
ssVwallNumber13
p155
(dp156
Vwidth
p157
V0.05
p158
sVxPos
p159
V-0.5
p160
sVyPos
p161
g135
sVheight
p162
g86
ssVwallNumber14
p163
(dp164
Vwidth
p165
V0.05
p166
sVxPos
p167
V0.5
p168
sVyPos
p169
g132
sVheight
p170
g135
ssVwallNumber15
p171
(dp172
Vwidth
p173
g132
sVxPos
p174
g135
sVyPos
p175
g135
sVheight
p176
V0.05
p177
ssVwallNumber16
p178
(dp179
Vwidth
p180
g132
sVxPos
p181
g135
sVyPos
p182
g132
sVheight
p183
V0.05
p184
ssVwallNumber17
p185
(dp186
Vwidth
p187
V0.05
p188
sVxPos
p189
V1.5
p190
sVyPos
p191
V1.1
p192
sVheight
p193
V0.2
p194
ssVwallNumber18
p195
(dp196
Vwidth
p197
V0.05
p198
sVxPos
p199
V1.5
p200
sVyPos
p201
V1.9
p202
sVheight
p203
V0.2
p204
ssVwallNumber19
p205
(dp206
Vwidth
p207
V0.05
p208
sVxPos
p209
V2.5
p210
sVyPos
p211
V1.5
p212
sVheight
p213
g132
ssVwallNumber8
p214
(dp215
Vwidth
p216
V0.05
p217
sVxPos
p218
V-0.5
p219
sVyPos
p220
V-0.09999999
p221
sVheight
p222
V0.2
p223
ssVwallNumber9
p224
(dp225
Vwidth
p226
V0.05
p227
sVxPos
p228
V2.5
p229
sVyPos
p230
V-0.5
p231
sVheight
p232
g132
ssVwallNumber6
p233
(dp234
Vwidth
p235
g107
sVxPos
p236
g132
sVyPos
p237
V-1
p238
sVheight
p239
V0.05
p240
ssVwallNumber7
p241
(dp242
Vwidth
p243
V0.05
p244
sVxPos
p245
V-0.5
p246
sVyPos
p247
V-0.9
p248
sVheight
p249
V0.2
p250
ssVwallNumber4
p251
(dp252
Vwidth
p253
V0.05
p254
sVxPos
p255
V-1.5
p256
sVyPos
p257
V1.4
p258
sVheight
p259
V1.2
p260
ssVwallNumber5
p261
(dp262
Vwidth
p263
g107
sVxPos
p264
g132
sVyPos
p265
g86
sVheight
p266
V0.05
p267
ssVwallNumber2
p268
(dp269
Vwidth
p270
V0.05
p271
sVxPos
p272
V-2.5
p273
sVyPos
p274
V0.5
p275
sVheight
p276
g107
ssVwallNumber3
p277
(dp278
Vwidth
p279
V0.05
p280
sVxPos
p281
V-1.5
p282
sVyPos
p283
V-0.4
p284
sVheight
p285
V1.2
p286
ssVwallNumber0
p287
(dp288
Vwidth
p289
g132
sVxPos
p290
V-2
p291
sVyPos
p292
g135
sVheight
p293
V0.05
p294
ssVwallNumber1
p295
(dp296
Vwidth
p297
g132
sVxPos
p298
V-2
p299
sVyPos
p300
V-1
p301
sVheight
p302
V0.05
p303
sssVnumOfSquadLeaders
p304
I0
sVcollectables
p305
(dp306
VcollectableNumber1
p307
(dp308
VxPos
p309
V-2
p310
sVspriteNum
p311
g132
sVyPos
p312
V-0.5
p313
sVlayer
p314
g86
sVcolorNum
p315
g132
sVvisible
p316
VFalse
p317
sVid
p318
V6
p319
ssVcollectableNumber0
p320
(dp321
VxPos
p322
g86
sVspriteNum
p323
g86
sVyPos
p324
V0.5
p325
sVlayer
p326
g135
sVcolorNum
p327
g86
sVvisible
p328
VTrue
p329
sVid
p330
g119
ssVcollectableNumber3
p331
(dp332
VxPos
p333
V-2
p334
sVspriteNum
p335
g107
sVyPos
p336
V1.5
p337
sVlayer
p338
g86
sVcolorNum
p339
g107
sVvisible
p340
VFalse
p341
sVid
p342
V8
p343
ssVcollectableNumber2
p344
(dp345
VxPos
p346
g132
sVspriteNum
p347
g135
sVyPos
p348
V-0.5
p349
sVlayer
p350
g86
sVcolorNum
p351
g135
sVvisible
p352
VFalse
p353
sVid
p354
g96
ssVcollectableNumber4
p355
(dp356
VxPos
p357
g86
sVspriteNum
p358
V4
p359
sVyPos
p360
V1.5
p361
sVlayer
p362
g135
sVcolorNum
p363
g359
sVvisible
p364
VTrue
p365
sVid
p366
V9
p367
sssVnumOfWaypoints
p368
I0
sVnumOfLeapfrogs
p369
I0
sVnumOfCollectables
p370
I5
s.