(dp0
VnumOfWalls
p1
I19
sVwaypoints
p2
(dp3
sVsquadLeaders
p4
(dp5
sVlidarLights
p6
(dp7
VlightNumber8
p8
(dp9
VxPos
p10
V2.475
p11
sVyPos
p12
V0.9364096
p13
ssVlightNumber1
p14
(dp15
VxPos
p16
V-0.475
p17
sVyPos
p18
V1.737418
p19
ssVlightNumber0
p20
(dp21
VxPos
p22
V0.4229496
p23
sVyPos
p24
V1.975
p25
ssVlightNumber3
p26
(dp27
VxPos
p28
V-3.475
p29
sVyPos
p30
V0.1959766
p31
ssVlightNumber2
p32
(dp33
VxPos
p34
V-0.4801002
p35
sVyPos
p36
V0.8
p37
ssVlightNumber5
p38
(dp39
VxPos
p40
V-0.2867108
p41
sVyPos
p42
V-0.975
p43
ssVlightNumber4
p44
(dp45
VxPos
p46
V-0.475
p47
sVyPos
p48
V0.07230815
p49
ssVlightNumber7
p50
(dp51
VxPos
p52
V2.475
p53
sVyPos
p54
V-0.7610754
p55
ssVlightNumber6
p56
(dp57
VxPos
p58
V0.7194053
p59
sVyPos
p60
V-0.975
p61
sssVleapfrogs
p62
(dp63
sVglobalData
p64
(dp65
VidCounter
p66
V5
p67
ssVnumOfLidarLights
p68
I9
sVplayer
p69
(dp70
VisHolding
p71
VFalse
p72
sVxPos
p73
V0
p74
sVheldObjID
p75
Vnothing
p76
sVyPos
p77
V0.5
p78
ssVwalls
p79
(dp80
VwallNumber10
p81
(dp82
Vwidth
p83
V1
p84
sVxPos
p85
V-2
p86
sVyPos
p87
V2
p88
sVheight
p89
V0.05
p90
ssVwallNumber11
p91
(dp92
Vwidth
p93
g84
sVxPos
p94
V-2
p95
sVyPos
p96
g84
sVheight
p97
V0.05
p98
ssVwallNumber12
p99
(dp100
Vwidth
p101
V0.05
p102
sVxPos
p103
V-2.5
p104
sVyPos
p105
V1.5
p106
sVheight
p107
g84
ssVwallNumber13
p108
(dp109
Vwidth
p110
V0.05
p111
sVxPos
p112
V-1.5
p113
sVyPos
p114
V1.1
p115
sVheight
p116
V0.2
p117
ssVwallNumber14
p118
(dp119
Vwidth
p120
V0.05
p121
sVxPos
p122
V-1.5
p123
sVyPos
p124
V1.9
p125
sVheight
p126
V0.2
p127
ssVwallNumber15
p128
(dp129
Vwidth
p130
V7
p131
sVxPos
p132
g74
sVyPos
p133
V3
p134
sVheight
p135
V0.05
p136
ssVwallNumber16
p137
(dp138
Vwidth
p139
g131
sVxPos
p140
g74
sVyPos
p141
V-2
p142
sVheight
p143
V0.05
p144
ssVwallNumber17
p145
(dp146
Vwidth
p147
V0.05
p148
sVxPos
p149
V-3.5
p150
sVyPos
p151
V0.5
p152
sVheight
p153
g67
ssVwallNumber18
p154
(dp155
Vwidth
p156
V0.05
p157
sVxPos
p158
V3.5
p159
sVyPos
p160
V0.5
p161
sVheight
p162
g67
ssVwallNumber8
p163
(dp164
Vwidth
p165
V0.05
p166
sVxPos
p167
V-2.5
p168
sVyPos
p169
V-0.5
p170
sVheight
p171
g84
ssVwallNumber9
p172
(dp173
Vwidth
p174
V0.05
p175
sVxPos
p176
V-1.5
p177
sVyPos
p178
V-0.5
p179
sVheight
p180
g84
ssVwallNumber6
p181
(dp182
Vwidth
p183
V0.2
p184
sVxPos
p185
V-1.6
p186
sVyPos
p187
g74
sVheight
p188
V0.05
p189
ssVwallNumber7
p190
(dp191
Vwidth
p192
g84
sVxPos
p193
V-2
p194
sVyPos
p195
V-1
p196
sVheight
p197
V0.05
p198
ssVwallNumber4
p199
(dp200
Vwidth
p201
V0.05
p202
sVxPos
p203
V2.5
p204
sVyPos
p205
V0.5
p206
sVheight
p207
g134
ssVwallNumber5
p208
(dp209
Vwidth
p210
V0.2
p211
sVxPos
p212
V-2.4
p213
sVyPos
p214
g74
sVheight
p215
V0.05
p216
ssVwallNumber2
p217
(dp218
Vwidth
p219
V0.05
p220
sVxPos
p221
V-0.5
p222
sVyPos
p223
V-0.4
p224
sVheight
p225
V1.2
p226
ssVwallNumber3
p227
(dp228
Vwidth
p229
V0.05
p230
sVxPos
p231
V-0.5
p232
sVyPos
p233
V1.4
p234
sVheight
p235
V1.2
p236
ssVwallNumber0
p237
(dp238
Vwidth
p239
g134
sVxPos
p240
g84
sVyPos
p241
g88
sVheight
p242
V0.05
p243
ssVwallNumber1
p244
(dp245
Vwidth
p246
g134
sVxPos
p247
g84
sVyPos
p248
V-1
p249
sVheight
p250
V0.05
p251
sssVnumOfSquadLeaders
p252
I0
sVcollectables
p253
(dp254
VcollectableNumber1
p255
(dp256
VxPos
p257
g74
sVspriteNum
p258
g84
sVyPos
p259
V-0.5
p260
sVlayer
p261
g74
sVcolorNum
p262
g84
sVvisible
p263
VFalse
p264
sVid
p265
g84
ssVcollectableNumber0
p266
(dp267
VxPos
p268
g84
sVspriteNum
p269
g74
sVyPos
p270
V-0.5
p271
sVlayer
p272
g74
sVcolorNum
p273
g74
sVvisible
p274
VFalse
p275
sVid
p276
g74
ssVcollectableNumber3
p277
(dp278
VxPos
p279
g84
sVspriteNum
p280
g134
sVyPos
p281
V0.5
p282
sVlayer
p283
g74
sVcolorNum
p284
g134
sVvisible
p285
VFalse
p286
sVid
p287
g134
ssVcollectableNumber2
p288
(dp289
VxPos
p290
g88
sVspriteNum
p291
g88
sVyPos
p292
V0.5
p293
sVlayer
p294
g74
sVcolorNum
p295
g88
sVvisible
p296
VFalse
p297
sVid
p298
g88
ssVcollectableNumber4
p299
(dp300
VxPos
p301
g74
sVspriteNum
p302
V4
p303
sVyPos
p304
V0.5
p305
sVlayer
p306
g88
sVcolorNum
p307
g303
sVvisible
p308
VTrue
p309
sVid
p310
g303
sssVnumOfWaypoints
p311
I0
sVnumOfLeapfrogs
p312
I0
sVnumOfCollectables
p313
I5
s.