(dp0
VnumOfWalls
p1
I29
sVwaypoints
p2
(dp3
sVsquadLeaders
p4
(dp5
sVlidarLights
p6
(dp7
VlightNumber9
p8
(dp9
VxPos
p10
V4.475
p11
sVyPos
p12
V1.289064
p13
ssVlightNumber8
p14
(dp15
VxPos
p16
V4.475
p17
sVyPos
p18
V-1.780127
p19
ssVlightNumber1
p20
(dp21
VxPos
p22
V0.4229496
p23
sVyPos
p24
V1.975
p25
ssVlightNumber0
p26
(dp27
VxPos
p28
V1.957392
p29
sVyPos
p30
V1.975
p31
ssVlightNumber3
p32
(dp33
VxPos
p34
V-0.475
p35
sVyPos
p36
V0.796813
p37
ssVlightNumber2
p38
(dp39
VxPos
p40
V-0.475
p41
sVyPos
p42
V1.737418
p43
ssVlightNumber5
p44
(dp45
VxPos
p46
V-0.475
p47
sVyPos
p48
V0.07230812
p49
ssVlightNumber4
p50
(dp51
VxPos
p52
V-0.475
p53
sVyPos
p54
V0.4584428
p55
ssVlightNumber7
p56
(dp57
VxPos
p58
V1.207138
p59
sVyPos
p60
V-1.975
p61
ssVlightNumber6
p62
(dp63
VxPos
p64
V-0.481091
p65
sVyPos
p66
V-1.975
p67
sssVleapfrogs
p68
(dp69
sVglobalData
p70
(dp71
VidCounter
p72
V5
p73
ssVnumOfLidarLights
p74
I10
sVplayer
p75
(dp76
VisHolding
p77
VFalse
p78
sVxPos
p79
V0
p80
sVheldObjID
p81
Vnothing
p82
sVyPos
p83
V0.5
p84
ssVwalls
p85
(dp86
VwallNumber28
p87
(dp88
Vwidth
p89
V0.05
p90
sVxPos
p91
V5.5
p92
sVyPos
p93
V0.5
p94
sVheight
p95
V7
p96
ssVwallNumber21
p97
(dp98
Vwidth
p99
V1.2
p100
sVxPos
p101
V-2.1
p102
sVyPos
p103
V-1
p104
sVheight
p105
V0.05
p106
ssVwallNumber20
p107
(dp108
Vwidth
p109
V1.2
p110
sVxPos
p111
V-3.9
p112
sVyPos
p113
V-1
p114
sVheight
p115
V0.05
p116
ssVwallNumber23
p117
(dp118
Vwidth
p119
V0.05
p120
sVxPos
p121
V-4.5
p122
sVyPos
p123
V-1.5
p124
sVheight
p125
V1
p126
ssVwallNumber22
p127
(dp128
Vwidth
p129
V3
p130
sVxPos
p131
V-3
p132
sVyPos
p133
V-2
p134
sVheight
p135
V0.05
p136
ssVwallNumber25
p137
(dp138
Vwidth
p139
V11
p140
sVxPos
p141
g80
sVyPos
p142
V4
p143
sVheight
p144
V0.05
p145
ssVwallNumber24
p146
(dp147
Vwidth
p148
V0.05
p149
sVxPos
p150
V-1.5
p151
sVyPos
p152
V-1.5
p153
sVheight
p154
g126
ssVwallNumber27
p155
(dp156
Vwidth
p157
V0.05
p158
sVxPos
p159
V-5.5
p160
sVyPos
p161
V0.5
p162
sVheight
p163
g96
ssVwallNumber26
p164
(dp165
Vwidth
p166
V11
p167
sVxPos
p168
g80
sVyPos
p169
V-3
p170
sVheight
p171
V0.05
p172
ssVwallNumber10
p173
(dp174
Vwidth
p175
V2
p176
sVxPos
p177
V-3.5
p178
sVyPos
p179
g130
sVheight
p180
V0.05
p181
ssVwallNumber11
p182
(dp183
Vwidth
p184
g176
sVxPos
p185
V-3.5
p186
sVyPos
p187
g80
sVheight
p188
V0.05
p189
ssVwallNumber12
p190
(dp191
Vwidth
p192
V0.05
p193
sVxPos
p194
V-4.5
p195
sVyPos
p196
V1.5
p197
sVheight
p198
g130
ssVwallNumber13
p199
(dp200
Vwidth
p201
V0.05
p202
sVxPos
p203
V-2.5
p204
sVyPos
p205
V1.2
p206
sVheight
p207
V2.4
p208
ssVwallNumber14
p209
(dp210
Vwidth
p211
V0.05
p212
sVxPos
p213
V-2.5
p214
sVyPos
p215
g130
sVheight
p216
g80
ssVwallNumber15
p217
(dp218
Vwidth
p219
g126
sVxPos
p220
V-2
p221
sVyPos
p222
g126
sVheight
p223
V0.05
p224
ssVwallNumber16
p225
(dp226
Vwidth
p227
V0.2
p228
sVxPos
p229
V-2.4
p230
sVyPos
p231
g80
sVheight
p232
V0.05
p233
ssVwallNumber17
p234
(dp235
Vwidth
p236
V0.2
p237
sVxPos
p238
V-1.6
p239
sVyPos
p240
g80
sVheight
p241
V0.05
p242
ssVwallNumber18
p243
(dp244
Vwidth
p245
V0.05
p246
sVxPos
p247
V-2.5
p248
sVyPos
p249
V0.5
p250
sVheight
p251
g126
ssVwallNumber19
p252
(dp253
Vwidth
p254
V0.05
p255
sVxPos
p256
V-1.5
p257
sVyPos
p258
V0.5
p259
sVheight
p260
g126
ssVwallNumber8
p261
(dp262
Vwidth
p263
V0.05
p264
sVxPos
p265
V-0.5
p266
sVyPos
p267
V0.3
p268
sVheight
p269
V3.4
p270
ssVwallNumber9
p271
(dp272
Vwidth
p273
V0.05
p274
sVxPos
p275
V4.5
p276
sVyPos
p277
g80
sVheight
p278
g143
ssVwallNumber6
p279
(dp280
Vwidth
p281
g73
sVxPos
p282
g176
sVyPos
p283
V-2
p284
sVheight
p285
V0.05
p286
ssVwallNumber7
p287
(dp288
Vwidth
p289
V0.05
p290
sVxPos
p291
V-0.5
p292
sVyPos
p293
V-2
p294
sVheight
p295
g80
ssVwallNumber4
p296
(dp297
Vwidth
p298
V0.05
p299
sVxPos
p300
V4.5
p301
sVyPos
p302
V2.5
p303
sVheight
p304
g126
ssVwallNumber5
p305
(dp306
Vwidth
p307
g73
sVxPos
p308
g176
sVyPos
p309
g176
sVheight
p310
V0.05
p311
ssVwallNumber2
p312
(dp313
Vwidth
p314
V5.4
p315
sVxPos
p316
V1.8
p317
sVyPos
p318
g176
sVheight
p319
V0.05
p320
ssVwallNumber3
p321
(dp322
Vwidth
p323
V0.05
p324
sVxPos
p325
V-1.5
p326
sVyPos
p327
V2.5
p328
sVheight
p329
g126
ssVwallNumber0
p330
(dp331
Vwidth
p332
V6
p333
sVxPos
p334
V1.5
p335
sVyPos
p336
g130
sVheight
p337
V0.05
p338
ssVwallNumber1
p339
(dp340
Vwidth
p341
g80
sVxPos
p342
V-1.5
p343
sVyPos
p344
g176
sVheight
p345
V0.05
p346
sssVnumOfSquadLeaders
p347
I0
sVcollectables
p348
(dp349
VcollectableNumber1
p350
(dp351
VxPos
p352
g176
sVspriteNum
p353
g126
sVyPos
p354
V-1.5
p355
sVlayer
p356
g80
sVcolorNum
p357
g126
sVvisible
p358
VFalse
p359
sVid
p360
g126
ssVcollectableNumber0
p361
(dp362
VxPos
p363
V-2
p364
sVspriteNum
p365
g80
sVyPos
p366
V0.5
p367
sVlayer
p368
g80
sVcolorNum
p369
g80
sVvisible
p370
VFalse
p371
sVid
p372
g80
ssVcollectableNumber3
p373
(dp374
VxPos
p375
g80
sVspriteNum
p376
g130
sVyPos
p377
V1.5
p378
sVlayer
p379
g80
sVcolorNum
p380
g130
sVvisible
p381
VFalse
p382
sVid
p383
g130
ssVcollectableNumber2
p384
(dp385
VxPos
p386
V-3
p387
sVspriteNum
p388
g176
sVyPos
p389
V1.5
p390
sVlayer
p391
g80
sVcolorNum
p392
g176
sVvisible
p393
VFalse
p394
sVid
p395
g176
ssVcollectableNumber4
p396
(dp397
VxPos
p398
V-2
p399
sVspriteNum
p400
g143
sVyPos
p401
V-1.5
p402
sVlayer
p403
g80
sVcolorNum
p404
g143
sVvisible
p405
VFalse
p406
sVid
p407
g143
sssVnumOfWaypoints
p408
I0
sVnumOfLeapfrogs
p409
I0
sVnumOfCollectables
p410
I5
s.