(dp0
VnumOfWalls
p1
I24
sVwaypoints
p2
(dp3
sVsquadLeaders
p4
(dp5
sVlidarLights
p6
(dp7
VlightNumber11
p8
(dp9
VxPos
p10
V1.475
p11
sVyPos
p12
V1.147874
p13
ssVlightNumber10
p14
(dp15
VxPos
p16
V1.905118
p17
sVyPos
p18
V0.02500001
p19
ssVlightNumber13
p20
(dp21
VxPos
p22
V-0.2800646
p23
sVyPos
p24
V0.975
p25
ssVlightNumber12
p26
(dp27
VxPos
p28
V0.475
p29
sVyPos
p30
V1.322441
p31
ssVlightNumber15
p32
(dp33
VxPos
p34
V-1.475
p35
sVyPos
p36
V-0.1643971
p37
ssVlightNumber14
p38
(dp39
VxPos
p40
V-1.475
p41
sVyPos
p42
V0.8913422
p43
ssVlightNumber17
p44
(dp45
VxPos
p46
V0.2841746
p47
sVyPos
p48
V0.02499998
p49
ssVlightNumber16
p50
(dp51
VxPos
p52
V-0.1984774
p53
sVyPos
p54
V0.02499992
p55
ssVlightNumber19
p56
(dp57
VxPos
p58
V3.475
p59
sVyPos
p60
V0.5576243
p61
ssVlightNumber18
p62
(dp63
VxPos
p64
V0.9963785
p65
sVyPos
p66
V0.02500004
p67
ssVlightNumber57
p68
(dp69
VxPos
p70
V0.475
p71
sVyPos
p72
V1.495209
p73
ssVlightNumber56
p74
(dp75
VxPos
p76
V1.689084
p77
sVyPos
p78
V0.02499998
p79
ssVlightNumber51
p80
(dp81
VxPos
p82
V-0.632264
p83
sVyPos
p84
V1.975
p85
ssVlightNumber50
p86
(dp87
VxPos
p88
V-0.1088349
p89
sVyPos
p90
V1.975
p91
ssVlightNumber53
p92
(dp93
VxPos
p94
V-0.8071439
p95
sVyPos
p96
V1.025
p97
ssVlightNumber52
p98
(dp99
VxPos
p100
V-1.475
p101
sVyPos
p102
V1.583763
p103
ssVlightNumber9
p104
(dp105
VxPos
p106
V3.475
p107
sVyPos
p108
V1.112737
p109
ssVlightNumber8
p110
(dp111
VxPos
p112
V0.9322399
p113
sVyPos
p114
V0.02500001
p115
ssVlightNumber1
p116
(dp117
VxPos
p118
V0.4229496
p119
sVyPos
p120
V1.975
p121
ssVlightNumber0
p122
(dp123
VxPos
p124
V1.475
p125
sVyPos
p126
V1.611492
p127
ssVlightNumber3
p128
(dp129
VxPos
p130
V-0.7601588
p131
sVyPos
p132
V0.975
p133
ssVlightNumber2
p134
(dp135
VxPos
p136
V-0.1823354
p137
sVyPos
p138
V0.975
p139
ssVlightNumber5
p140
(dp141
VxPos
p142
V-1.475
p143
sVyPos
p144
V-0.8280957
p145
ssVlightNumber4
p146
(dp147
VxPos
p148
V-2.475
p149
sVyPos
p150
V0.2834654
p151
ssVlightNumber7
p152
(dp153
VxPos
p154
V0.2316729
p155
sVyPos
p156
V0.02499998
p157
ssVlightNumber6
p158
(dp159
VxPos
p160
V-0.09233059
p161
sVyPos
p162
V0.02500001
p163
ssVlightNumber55
p164
(dp165
VxPos
p166
V0.2297763
p167
sVyPos
p168
V0.02499998
p169
ssVlightNumber62
p170
(dp171
VxPos
p172
V-1.475
p173
sVyPos
p174
V1.501485
p175
ssVlightNumber59
p176
(dp177
VxPos
p178
V-0.1463098
p179
sVyPos
p180
V1.975
p181
ssVlightNumber63
p182
(dp183
VxPos
p184
V-1.054708
p185
sVyPos
p186
V1.025
p187
ssVlightNumber28
p188
(dp189
VxPos
p190
V2.022527
p191
sVyPos
p192
V0.02499998
p193
ssVlightNumber29
p194
(dp195
VxPos
p196
V0.475
p197
sVyPos
p198
V1.092498
p199
ssVlightNumber54
p200
(dp201
VxPos
p202
V-0.3071507
p203
sVyPos
p204
V1.025
p205
ssVlightNumber20
p206
(dp207
VxPos
p208
V0.475
p209
sVyPos
p210
V1.006533
p211
ssVlightNumber21
p212
(dp213
VxPos
p214
V0.475
p215
sVyPos
p216
V1.599153
p217
ssVlightNumber22
p218
(dp219
VxPos
p220
V-0.1182441
p221
sVyPos
p222
V1.975
p223
ssVlightNumber23
p224
(dp225
VxPos
p226
V-1.238821
p227
sVyPos
p228
V1.975
p229
ssVlightNumber24
p230
(dp231
VxPos
p232
V-1.475
p233
sVyPos
p234
V0.9032209
p235
ssVlightNumber25
p236
(dp237
VxPos
p238
V-1.475
p239
sVyPos
p240
V-0.3996618
p241
ssVlightNumber26
p242
(dp243
VxPos
p244
V0.02605304
p245
sVyPos
p246
V0.02499998
p247
ssVlightNumber27
p248
(dp249
VxPos
p250
V0.7037035
p251
sVyPos
p252
V0.02499998
p253
ssVlightNumber64
p254
(dp255
VxPos
p256
V-0.5553134
p257
sVyPos
p258
V1.025
p259
ssVlightNumber65
p260
(dp261
VxPos
p262
V-0.1836223
p263
sVyPos
p264
V1.025
p265
ssVlightNumber66
p266
(dp267
VxPos
p268
V0.475
p269
sVyPos
p270
V1.1216
p271
ssVlightNumber67
p272
(dp273
VxPos
p274
V0.4749999
p275
sVyPos
p276
V1.788897
p277
ssVlightNumber60
p278
(dp279
VxPos
p280
V-0.4653968
p281
sVyPos
p282
V1.975
p283
ssVlightNumber61
p284
(dp285
VxPos
p286
V-0.9732162
p287
sVyPos
p288
V1.975
p289
ssVlightNumber48
p290
(dp291
VxPos
p292
V0.475
p293
sVyPos
p294
V1.585429
p295
ssVlightNumber49
p296
(dp297
VxPos
p298
V0.3178705
p299
sVyPos
p300
V1.975
p301
ssVlightNumber46
p302
(dp303
VxPos
p304
V1.305432
p305
sVyPos
p306
V0.0250001
p307
ssVlightNumber47
p308
(dp309
VxPos
p310
V0.475
p311
sVyPos
p312
V1.288249
p313
ssVlightNumber44
p314
(dp315
VxPos
p316
V-1.887677
p317
sVyPos
p318
V-1.975
p319
ssVlightNumber45
p320
(dp321
VxPos
p322
V0.2569421
p323
sVyPos
p324
V0.0250001
p325
ssVlightNumber42
p326
(dp327
VxPos
p328
V-0.2613895
p329
sVyPos
p330
V1.975
p331
ssVlightNumber43
p332
(dp333
VxPos
p334
V-0.533586
p335
sVyPos
p336
V1.025
p337
ssVlightNumber40
p338
(dp339
VxPos
p340
V0.475
p341
sVyPos
p342
V1.451679
p343
ssVlightNumber41
p344
(dp345
VxPos
p346
V0.2932289
p347
sVyPos
p348
V1.975
p349
ssVlightNumber58
p350
(dp351
VxPos
p352
V0.3736792
p353
sVyPos
p354
V1.975
p355
ssVlightNumber39
p356
(dp357
VxPos
p358
V0.475
p359
sVyPos
p360
V1.271074
p361
ssVlightNumber38
p362
(dp363
VxPos
p364
V0.475
p365
sVyPos
p366
V1.188344
p367
ssVlightNumber37
p368
(dp369
VxPos
p370
V0.475
p371
sVyPos
p372
V1.058263
p373
ssVlightNumber36
p374
(dp375
VxPos
p376
V0.2636725
p377
sVyPos
p378
V0.02499986
p379
ssVlightNumber35
p380
(dp381
VxPos
p382
V-1.475
p383
sVyPos
p384
V-0.8283061
p385
ssVlightNumber34
p386
(dp387
VxPos
p388
V-0.5636434
p389
sVyPos
p390
V1.025
p391
ssVlightNumber33
p392
(dp393
VxPos
p394
V-1.249585
p395
sVyPos
p396
V1.975
p397
ssVlightNumber32
p398
(dp399
VxPos
p400
V-0.04642466
p401
sVyPos
p402
V1.975
p403
ssVlightNumber31
p404
(dp405
VxPos
p406
V0.475
p407
sVyPos
p408
V1.738285
p409
ssVlightNumber30
p410
(dp411
VxPos
p412
V0.475
p413
sVyPos
p414
V1.221424
p415
sssVleapfrogs
p416
(dp417
sVglobalData
p418
(dp419
VidCounter
p420
V5
p421
ssVnumOfLidarLights
p422
I68
sVplayer
p423
(dp424
VisHolding
p425
VFalse
p426
sVxPos
p427
V-0.5070603
p428
sVheldObjID
p429
Vnothing
p430
sVyPos
p431
V1.642877
p432
ssVwalls
p433
(dp434
VwallNumber21
p435
(dp436
Vwidth
p437
V7
p438
sVxPos
p439
V0
p440
sVyPos
p441
V-2
p442
sVheight
p443
V0.05
p444
ssVwallNumber20
p445
(dp446
Vwidth
p447
g438
sVxPos
p448
g440
sVyPos
p449
V3
p450
sVheight
p451
V0.05
p452
ssVwallNumber23
p453
(dp454
Vwidth
p455
V0.05
p456
sVxPos
p457
V3.5
p458
sVyPos
p459
V0.5
p460
sVheight
p461
g421
ssVwallNumber22
p462
(dp463
Vwidth
p464
V0.05
p465
sVxPos
p466
V-3.5
p467
sVyPos
p468
V0.5
p469
sVheight
p470
g421
ssVwallNumber10
p471
(dp472
Vwidth
p473
V2
p474
sVxPos
p475
V-0.5
p476
sVyPos
p477
g474
sVheight
p478
V0.05
p479
ssVwallNumber11
p480
(dp481
Vwidth
p482
V1.4
p483
sVxPos
p484
V-0.8
p485
sVyPos
p486
V1
p487
sVheight
p488
V0.05
p489
ssVwallNumber12
p490
(dp491
Vwidth
p492
g440
sVxPos
p493
V0.5
p494
sVyPos
p495
g487
sVheight
p496
V0.05
p497
ssVwallNumber13
p498
(dp499
Vwidth
p500
V0.05
p501
sVxPos
p502
V-1.5
p503
sVyPos
p504
V1.5
p505
sVheight
p506
g487
ssVwallNumber14
p507
(dp508
Vwidth
p509
V0.05
p510
sVxPos
p511
V0.5
p512
sVyPos
p513
V1.5
p514
sVheight
p515
g487
ssVwallNumber15
p516
(dp517
Vwidth
p518
g487
sVxPos
p519
g474
sVyPos
p520
g474
sVheight
p521
V0.05
p522
ssVwallNumber16
p523
(dp524
Vwidth
p525
V0.2
p526
sVxPos
p527
V1.6
p528
sVyPos
p529
g487
sVheight
p530
V0.05
p531
ssVwallNumber17
p532
(dp533
Vwidth
p534
V0.2
p535
sVxPos
p536
V2.4
p537
sVyPos
p538
g487
sVheight
p539
V0.05
p540
ssVwallNumber18
p541
(dp542
Vwidth
p543
V0.05
p544
sVxPos
p545
V1.5
p546
sVyPos
p547
V1.5
p548
sVheight
p549
g487
ssVwallNumber19
p550
(dp551
Vwidth
p552
V0.05
p553
sVxPos
p554
V2.5
p555
sVyPos
p556
V1.5
p557
sVheight
p558
g487
ssVwallNumber8
p559
(dp560
Vwidth
p561
V0.05
p562
sVxPos
p563
V-1.5
p564
sVyPos
p565
V-0.4
p566
sVheight
p567
V1.2
p568
ssVwallNumber9
p569
(dp570
Vwidth
p571
V0.05
p572
sVxPos
p573
V-1.5
p574
sVyPos
p575
V1.4
p576
sVheight
p577
V1.2
p578
ssVwallNumber6
p579
(dp580
Vwidth
p581
g487
sVxPos
p582
V-2
p583
sVyPos
p584
V-1
p585
sVheight
p586
V0.05
p587
ssVwallNumber7
p588
(dp589
Vwidth
p590
V0.05
p591
sVxPos
p592
V-2.5
p593
sVyPos
p594
V0.5
p595
sVheight
p596
g450
ssVwallNumber4
p597
(dp598
Vwidth
p599
V0.05
p600
sVxPos
p601
V2.5
p602
sVyPos
p603
V-0.5
p604
sVheight
p605
g487
ssVwallNumber5
p606
(dp607
Vwidth
p608
g487
sVxPos
p609
V-2
p610
sVyPos
p611
g474
sVheight
p612
V0.05
p613
ssVwallNumber2
p614
(dp615
Vwidth
p616
V0.05
p617
sVxPos
p618
V-0.5
p619
sVyPos
p620
V-0.9
p621
sVheight
p622
V0.2
p623
ssVwallNumber3
p624
(dp625
Vwidth
p626
V0.05
p627
sVxPos
p628
V-0.5
p629
sVyPos
p630
V-0.09999999
p631
sVheight
p632
V0.2
p633
ssVwallNumber0
p634
(dp635
Vwidth
p636
g450
sVxPos
p637
g487
sVyPos
p638
g440
sVheight
p639
V0.05
p640
ssVwallNumber1
p641
(dp642
Vwidth
p643
g450
sVxPos
p644
g487
sVyPos
p645
V-1
p646
sVheight
p647
V0.05
p648
sssVnumOfSquadLeaders
p649
I0
sVcollectables
p650
(dp651
VcollectableNumber1
p652
(dp653
VxPos
p654
V-2
p655
sVspriteNum
p656
g487
sVyPos
p657
V1.5
p658
sVlayer
p659
g440
sVcolorNum
p660
g487
sVvisible
p661
VFalse
p662
sVid
p663
g487
ssVcollectableNumber0
p664
(dp665
VxPos
p666
g474
sVspriteNum
p667
g440
sVyPos
p668
V-0.5
p669
sVlayer
p670
g440
sVcolorNum
p671
g440
sVvisible
p672
VFalse
p673
sVid
p674
g440
ssVcollectableNumber3
p675
(dp676
VxPos
p677
V-2
p678
sVspriteNum
p679
g450
sVyPos
p680
V0.5
p681
sVlayer
p682
g440
sVcolorNum
p683
g450
sVvisible
p684
VFalse
p685
sVid
p686
g450
ssVcollectableNumber2
p687
(dp688
VxPos
p689
g440
sVspriteNum
p690
g474
sVyPos
p691
V1.5
p692
sVlayer
p693
g474
sVcolorNum
p694
g474
sVvisible
p695
VTrue
p696
sVid
p697
g474
ssVcollectableNumber4
p698
(dp699
VxPos
p700
V-1
p701
sVspriteNum
p702
V4
p703
sVyPos
p704
V1.5
p705
sVlayer
p706
g474
sVcolorNum
p707
g703
sVvisible
p708
VTrue
p709
sVid
p710
g703
sssVnumOfWaypoints
p711
I0
sVnumOfLeapfrogs
p712
I0
sVnumOfCollectables
p713
I5
s.