(dp0
VnumOfWalls
p1
I24
sVsquadLeaders
p2
(dp3
sVlidarLights
p4
(dp5
VlightNumber9
p6
(dp7
VxPos
p8
V3.475
p9
sVyPos
p10
V1.112737
p11
ssVlightNumber8
p12
(dp13
VxPos
p14
V0.9322399
p15
sVyPos
p16
V0.02500001
p17
ssVlightNumber1
p18
(dp19
VxPos
p20
V0.4229496
p21
sVyPos
p22
V1.975
p23
ssVlightNumber0
p24
(dp25
VxPos
p26
V1.475
p27
sVyPos
p28
V1.611492
p29
ssVlightNumber3
p30
(dp31
VxPos
p32
V-0.7601588
p33
sVyPos
p34
V0.975
p35
ssVlightNumber2
p36
(dp37
VxPos
p38
V-0.1823354
p39
sVyPos
p40
V0.975
p41
ssVlightNumber5
p42
(dp43
VxPos
p44
V-1.475
p45
sVyPos
p46
V-0.8280957
p47
ssVlightNumber4
p48
(dp49
VxPos
p50
V-2.475
p51
sVyPos
p52
V0.2834654
p53
ssVlightNumber7
p54
(dp55
VxPos
p56
V0.2316729
p57
sVyPos
p58
V0.02499998
p59
ssVlightNumber6
p60
(dp61
VxPos
p62
V-0.09233059
p63
sVyPos
p64
V0.02500001
p65
sssVwaypoints
p66
(dp67
sVglobalData
p68
(dp69
VidCounter
p70
V5
p71
ssVnumOfLidarLights
p72
I10
sVplayer
p73
(dp74
VisHolding
p75
VFalse
p76
sVxPos
p77
V0
p78
sVheldObjID
p79
Vnothing
p80
sVyPos
p81
V0.5
p82
ssVleapfrogs
p83
(dp84
sVwalls
p85
(dp86
VwallNumber21
p87
(dp88
Vwidth
p89
V7
p90
sVxPos
p91
g78
sVyPos
p92
V-2
p93
sVheight
p94
V0.05
p95
ssVwallNumber20
p96
(dp97
Vwidth
p98
g90
sVxPos
p99
g78
sVyPos
p100
V3
p101
sVheight
p102
V0.05
p103
ssVwallNumber23
p104
(dp105
Vwidth
p106
V0.05
p107
sVxPos
p108
V3.5
p109
sVyPos
p110
V0.5
p111
sVheight
p112
g71
ssVwallNumber22
p113
(dp114
Vwidth
p115
V0.05
p116
sVxPos
p117
V-3.5
p118
sVyPos
p119
V0.5
p120
sVheight
p121
g71
ssVwallNumber10
p122
(dp123
Vwidth
p124
V2
p125
sVxPos
p126
V-0.5
p127
sVyPos
p128
g125
sVheight
p129
V0.05
p130
ssVwallNumber11
p131
(dp132
Vwidth
p133
V1.4
p134
sVxPos
p135
V-0.8
p136
sVyPos
p137
V1
p138
sVheight
p139
V0.05
p140
ssVwallNumber12
p141
(dp142
Vwidth
p143
g78
sVxPos
p144
V0.5
p145
sVyPos
p146
g138
sVheight
p147
V0.05
p148
ssVwallNumber13
p149
(dp150
Vwidth
p151
V0.05
p152
sVxPos
p153
V-1.5
p154
sVyPos
p155
V1.5
p156
sVheight
p157
g138
ssVwallNumber14
p158
(dp159
Vwidth
p160
V0.05
p161
sVxPos
p162
V0.5
p163
sVyPos
p164
V1.5
p165
sVheight
p166
g138
ssVwallNumber15
p167
(dp168
Vwidth
p169
g138
sVxPos
p170
g125
sVyPos
p171
g125
sVheight
p172
V0.05
p173
ssVwallNumber16
p174
(dp175
Vwidth
p176
V0.2
p177
sVxPos
p178
V1.6
p179
sVyPos
p180
g138
sVheight
p181
V0.05
p182
ssVwallNumber17
p183
(dp184
Vwidth
p185
V0.2
p186
sVxPos
p187
V2.4
p188
sVyPos
p189
g138
sVheight
p190
V0.05
p191
ssVwallNumber18
p192
(dp193
Vwidth
p194
V0.05
p195
sVxPos
p196
V1.5
p197
sVyPos
p198
V1.5
p199
sVheight
p200
g138
ssVwallNumber19
p201
(dp202
Vwidth
p203
V0.05
p204
sVxPos
p205
V2.5
p206
sVyPos
p207
V1.5
p208
sVheight
p209
g138
ssVwallNumber8
p210
(dp211
Vwidth
p212
V0.05
p213
sVxPos
p214
V-1.5
p215
sVyPos
p216
V-0.4
p217
sVheight
p218
V1.2
p219
ssVwallNumber9
p220
(dp221
Vwidth
p222
V0.05
p223
sVxPos
p224
V-1.5
p225
sVyPos
p226
V1.4
p227
sVheight
p228
V1.2
p229
ssVwallNumber6
p230
(dp231
Vwidth
p232
g138
sVxPos
p233
V-2
p234
sVyPos
p235
V-1
p236
sVheight
p237
V0.05
p238
ssVwallNumber7
p239
(dp240
Vwidth
p241
V0.05
p242
sVxPos
p243
V-2.5
p244
sVyPos
p245
V0.5
p246
sVheight
p247
g101
ssVwallNumber4
p248
(dp249
Vwidth
p250
V0.05
p251
sVxPos
p252
V2.5
p253
sVyPos
p254
V-0.5
p255
sVheight
p256
g138
ssVwallNumber5
p257
(dp258
Vwidth
p259
g138
sVxPos
p260
V-2
p261
sVyPos
p262
g125
sVheight
p263
V0.05
p264
ssVwallNumber2
p265
(dp266
Vwidth
p267
V0.05
p268
sVxPos
p269
V-0.5
p270
sVyPos
p271
V-0.9
p272
sVheight
p273
V0.2
p274
ssVwallNumber3
p275
(dp276
Vwidth
p277
V0.05
p278
sVxPos
p279
V-0.5
p280
sVyPos
p281
V-0.09999999
p282
sVheight
p283
V0.2
p284
ssVwallNumber0
p285
(dp286
Vwidth
p287
g101
sVxPos
p288
g138
sVyPos
p289
g78
sVheight
p290
V0.05
p291
ssVwallNumber1
p292
(dp293
Vwidth
p294
g101
sVxPos
p295
g138
sVyPos
p296
V-1
p297
sVheight
p298
V0.05
p299
sssVnumOfSquadLeaders
p300
I0
sVcollectables
p301
(dp302
VcollectableNumber1
p303
(dp304
VxPos
p305
V-2
p306
sVspriteNum
p307
g138
sVyPos
p308
V1.5
p309
sVlayer
p310
g78
sVcolorNum
p311
g138
sVvisible
p312
VFalse
p313
sVid
p314
g138
ssVcollectableNumber0
p315
(dp316
VxPos
p317
g125
sVspriteNum
p318
g78
sVyPos
p319
V-0.5
p320
sVlayer
p321
g78
sVcolorNum
p322
g78
sVvisible
p323
VFalse
p324
sVid
p325
g78
ssVcollectableNumber3
p326
(dp327
VxPos
p328
V-2
p329
sVspriteNum
p330
g101
sVyPos
p331
V0.5
p332
sVlayer
p333
g78
sVcolorNum
p334
g101
sVvisible
p335
VFalse
p336
sVid
p337
g101
ssVcollectableNumber2
p338
(dp339
VxPos
p340
g78
sVspriteNum
p341
g125
sVyPos
p342
V1.5
p343
sVlayer
p344
g78
sVcolorNum
p345
g125
sVvisible
p346
VFalse
p347
sVid
p348
g125
ssVcollectableNumber4
p349
(dp350
VxPos
p351
V-1
p352
sVspriteNum
p353
V4
p354
sVyPos
p355
V1.5
p356
sVlayer
p357
g78
sVcolorNum
p358
g354
sVvisible
p359
VFalse
p360
sVid
p361
g354
sssVnumOfWaypoints
p362
I0
sVnumOfLeapfrogs
p363
I0
sVnumOfCollectables
p364
I5
s.