(dp0
VnumOfWalls
p1
I19
sVwaypoints
p2
(dp3
sVsquadLeaders
p4
(dp5
sVlidarLights
p6
(dp7
VlightNumber11
p8
(dp9
VxPos
p10
V0.1550287
p11
sVyPos
p12
V1.975
p13
ssVlightNumber10
p14
(dp15
VxPos
p16
V0.475
p17
sVyPos
p18
V1.009375
p19
ssVlightNumber13
p20
(dp21
VxPos
p22
V-2.475
p23
sVyPos
p24
V1.499964
p25
ssVlightNumber12
p26
(dp27
VxPos
p28
V-0.8862696
p29
sVyPos
p30
V1.975
p31
ssVlightNumber15
p32
(dp33
VxPos
p34
V-1.152397
p35
sVyPos
p36
V-0.975
p37
ssVlightNumber14
p38
(dp39
VxPos
p40
V-2.475
p41
sVyPos
p42
V-0.163173
p43
ssVlightNumber17
p44
(dp45
VxPos
p46
V0.475
p47
sVyPos
p48
V-0.1537815
p49
ssVlightNumber16
p50
(dp51
VxPos
p52
V-0.0257465
p53
sVyPos
p54
V-0.975
p55
ssVlightNumber9
p56
(dp57
VxPos
p58
V0.475
p59
sVyPos
p60
V0.5837554
p61
ssVlightNumber8
p62
(dp63
VxPos
p64
V0.475
p65
sVyPos
p66
V0.2579754
p67
ssVlightNumber1
p68
(dp69
VxPos
p70
V0.4229496
p71
sVyPos
p72
V1.975
p73
ssVlightNumber0
p74
(dp75
VxPos
p76
V0.475
p77
sVyPos
p78
V0.8579382
p79
ssVlightNumber3
p80
(dp81
VxPos
p82
V-2.360493
p83
sVyPos
p84
V1.975
p85
ssVlightNumber2
p86
(dp87
VxPos
p88
V-0.5661994
p89
sVyPos
p90
V1.975
p91
ssVlightNumber5
p92
(dp93
VxPos
p94
V-1.638154
p95
sVyPos
p96
V-0.975
p97
ssVlightNumber4
p98
(dp99
VxPos
p100
V-2.475
p101
sVyPos
p102
V0.2834654
p103
ssVlightNumber7
p104
(dp105
VxPos
p106
V0.475
p107
sVyPos
p108
V-0.4738947
p109
ssVlightNumber6
p110
(dp111
VxPos
p112
V-0.2867108
p113
sVyPos
p114
V-0.975
p115
sssVleapfrogs
p116
(dp117
sVglobalData
p118
(dp119
VidCounter
p120
V70
p121
ssVnumOfLidarLights
p122
I18
sVplayer
p123
(dp124
VisHolding
p125
VFalse
p126
sVxPos
p127
V0
p128
sVheldObjID
p129
Vnothing
p130
sVyPos
p131
V0.5
p132
ssVwalls
p133
(dp134
VwallNumber10
p135
(dp136
Vwidth
p137
V1
p138
sVxPos
p139
V2
p140
sVyPos
p141
g140
sVheight
p142
V0.05
p143
ssVwallNumber11
p144
(dp145
Vwidth
p146
V0.2
p147
sVxPos
p148
V1.6
p149
sVyPos
p150
g138
sVheight
p151
V0.05
p152
ssVwallNumber12
p153
(dp154
Vwidth
p155
V0.2
p156
sVxPos
p157
V2.4
p158
sVyPos
p159
g138
sVheight
p160
V0.05
p161
ssVwallNumber13
p162
(dp163
Vwidth
p164
V0.05
p165
sVxPos
p166
V1.5
p167
sVyPos
p168
V1.5
p169
sVheight
p170
g138
ssVwallNumber14
p171
(dp172
Vwidth
p173
V0.05
p174
sVxPos
p175
V2.5
p176
sVyPos
p177
V1.5
p178
sVheight
p179
g138
ssVwallNumber15
p180
(dp181
Vwidth
p182
V7
p183
sVxPos
p184
g128
sVyPos
p185
V3
p186
sVheight
p187
V0.05
p188
ssVwallNumber16
p189
(dp190
Vwidth
p191
g183
sVxPos
p192
g128
sVyPos
p193
V-2
p194
sVheight
p195
V0.05
p196
ssVwallNumber17
p197
(dp198
Vwidth
p199
V0.05
p200
sVxPos
p201
V-3.5
p202
sVyPos
p203
V0.5
p204
sVheight
p205
V5
p206
ssVwallNumber18
p207
(dp208
Vwidth
p209
V0.05
p210
sVxPos
p211
V3.5
p212
sVyPos
p213
V0.5
p214
sVheight
p215
g206
ssVwallNumber8
p216
(dp217
Vwidth
p218
V0.05
p219
sVxPos
p220
V1.5
p221
sVyPos
p222
V-0.09999999
p223
sVheight
p224
V0.2
p225
ssVwallNumber9
p226
(dp227
Vwidth
p228
V0.05
p229
sVxPos
p230
V2.5
p231
sVyPos
p232
V-0.5
p233
sVheight
p234
g138
ssVwallNumber6
p235
(dp236
Vwidth
p237
g138
sVxPos
p238
g140
sVyPos
p239
V-1
p240
sVheight
p241
V0.05
p242
ssVwallNumber7
p243
(dp244
Vwidth
p245
V0.05
p246
sVxPos
p247
V1.5
p248
sVyPos
p249
V-0.9
p250
sVheight
p251
V0.2
p252
ssVwallNumber4
p253
(dp254
Vwidth
p255
V0.05
p256
sVxPos
p257
V0.5
p258
sVyPos
p259
g140
sVheight
p260
g128
ssVwallNumber5
p261
(dp262
Vwidth
p263
g138
sVxPos
p264
g140
sVyPos
p265
g128
sVheight
p266
V0.05
p267
ssVwallNumber2
p268
(dp269
Vwidth
p270
V0.05
p271
sVxPos
p272
V-2.5
p273
sVyPos
p274
V0.5
p275
sVheight
p276
g186
ssVwallNumber3
p277
(dp278
Vwidth
p279
V0.05
p280
sVxPos
p281
V0.5
p282
sVyPos
p283
V0.2
p284
sVheight
p285
V2.4
p286
ssVwallNumber0
p287
(dp288
Vwidth
p289
g186
sVxPos
p290
V-1
p291
sVyPos
p292
g140
sVheight
p293
V0.05
p294
ssVwallNumber1
p295
(dp296
Vwidth
p297
g186
sVxPos
p298
V-1
p299
sVyPos
p300
V-1
p301
sVheight
p302
V0.05
p303
sssVnumOfSquadLeaders
p304
I0
sVcollectables
p305
(dp306
VcollectableNumber1
p307
(dp308
VxPos
p309
V-2
p310
sVspriteNum
p311
g138
sVyPos
p312
V0.5
p313
sVlayer
p314
g128
sVcolorNum
p315
g138
sVvisible
p316
VFalse
p317
sVid
p318
V66
p319
ssVcollectableNumber0
p320
(dp321
VxPos
p322
g140
sVspriteNum
p323
g128
sVyPos
p324
V-0.5
p325
sVlayer
p326
g128
sVcolorNum
p327
g128
sVvisible
p328
VFalse
p329
sVid
p330
V65
p331
ssVcollectableNumber3
p332
(dp333
VxPos
p334
V-2
p335
sVspriteNum
p336
g186
sVyPos
p337
V-0.5
p338
sVlayer
p339
g128
sVcolorNum
p340
g186
sVvisible
p341
VFalse
p342
sVid
p343
V68
p344
ssVcollectableNumber2
p345
(dp346
VxPos
p347
g140
sVspriteNum
p348
g140
sVyPos
p349
V1.5
p350
sVlayer
p351
g128
sVcolorNum
p352
g140
sVvisible
p353
VFalse
p354
sVid
p355
V67
p356
ssVcollectableNumber4
p357
(dp358
VxPos
p359
V-1
p360
sVspriteNum
p361
V4
p362
sVyPos
p363
V1.5
p364
sVlayer
p365
g128
sVcolorNum
p366
g362
sVvisible
p367
VFalse
p368
sVid
p369
V69
p370
sssVnumOfWaypoints
p371
I0
sVnumOfLeapfrogs
p372
I0
sVnumOfCollectables
p373
I5
s.