(dp0
VnumOfWalls
p1
I19
sVwaypoints
p2
(dp3
sVsquadLeaders
p4
(dp5
sVlidarLights
p6
(dp7
VlightNumber1
p8
(dp9
VxPos
p10
V0.2601329
p11
sVyPos
p12
V2.975
p13
ssVlightNumber0
p14
(dp15
VxPos
p16
V0.475
p17
sVyPos
p18
V1.009375
p19
ssVlightNumber2
p20
(dp21
VxPos
p22
V-0.8862696
p23
sVyPos
p24
V1.975
p25
sssVleapfrogs
p26
(dp27
sVglobalData
p28
(dp29
VidCounter
p30
V125
p31
ssVnumOfLidarLights
p32
I3
sVplayer
p33
(dp34
VisHolding
p35
VFalse
p36
sVxPos
p37
V0
p38
sVheldObjID
p39
Vnothing
p40
sVyPos
p41
V0.5
p42
ssVwalls
p43
(dp44
VwallNumber10
p45
(dp46
Vwidth
p47
V2
p48
sVxPos
p49
V1.5
p50
sVyPos
p51
g48
sVheight
p52
V0.05
p53
ssVwallNumber11
p54
(dp55
Vwidth
p56
g48
sVxPos
p57
V1.5
p58
sVyPos
p59
V1
p60
sVheight
p61
V0.05
p62
ssVwallNumber12
p63
(dp64
Vwidth
p65
V0.05
p66
sVxPos
p67
V0.5
p68
sVyPos
p69
V1.1
p70
sVheight
p71
V0.2
p72
ssVwallNumber13
p73
(dp74
Vwidth
p75
V0.05
p76
sVxPos
p77
V0.5
p78
sVyPos
p79
V1.9
p80
sVheight
p81
V0.2
p82
ssVwallNumber14
p83
(dp84
Vwidth
p85
V0.05
p86
sVxPos
p87
V2.5
p88
sVyPos
p89
V1.5
p90
sVheight
p91
g60
ssVwallNumber15
p92
(dp93
Vwidth
p94
V7
p95
sVxPos
p96
g38
sVyPos
p97
V3
p98
sVheight
p99
V0.05
p100
ssVwallNumber16
p101
(dp102
Vwidth
p103
g95
sVxPos
p104
g38
sVyPos
p105
V-2
p106
sVheight
p107
V0.05
p108
ssVwallNumber17
p109
(dp110
Vwidth
p111
V0.05
p112
sVxPos
p113
V-3.5
p114
sVyPos
p115
V0.5
p116
sVheight
p117
V5
p118
ssVwallNumber18
p119
(dp120
Vwidth
p121
V0.05
p122
sVxPos
p123
V3.5
p124
sVyPos
p125
V0.5
p126
sVheight
p127
g118
ssVwallNumber8
p128
(dp129
Vwidth
p130
V0.05
p131
sVxPos
p132
V-0.5
p133
sVyPos
p134
V1.1
p135
sVheight
p136
V0.2
p137
ssVwallNumber9
p138
(dp139
Vwidth
p140
V0.05
p141
sVxPos
p142
V-0.5
p143
sVyPos
p144
V1.9
p145
sVheight
p146
V0.2
p147
ssVwallNumber6
p148
(dp149
Vwidth
p150
g48
sVxPos
p151
V-1.5
p152
sVyPos
p153
g60
sVheight
p154
V0.05
p155
ssVwallNumber7
p156
(dp157
Vwidth
p158
V0.05
p159
sVxPos
p160
V-2.5
p161
sVyPos
p162
V1.5
p163
sVheight
p164
g60
ssVwallNumber4
p165
(dp166
Vwidth
p167
V0.05
p168
sVxPos
p169
V2.5
p170
sVyPos
p171
V-0.5
p172
sVheight
p173
g60
ssVwallNumber5
p174
(dp175
Vwidth
p176
g48
sVxPos
p177
V-1.5
p178
sVyPos
p179
g48
sVheight
p180
V0.05
p181
ssVwallNumber2
p182
(dp183
Vwidth
p184
g118
sVxPos
p185
g38
sVyPos
p186
V-1
p187
sVheight
p188
V0.05
p189
ssVwallNumber3
p190
(dp191
Vwidth
p192
V0.05
p193
sVxPos
p194
V-2.5
p195
sVyPos
p196
V-0.5
p197
sVheight
p198
g60
ssVwallNumber0
p199
(dp200
Vwidth
p201
V2.2
p202
sVxPos
p203
V-1.4
p204
sVyPos
p205
g38
sVheight
p206
V0.05
p207
ssVwallNumber1
p208
(dp209
Vwidth
p210
V2.2
p211
sVxPos
p212
V1.4
p213
sVyPos
p214
g38
sVheight
p215
V0.05
p216
sssVnumOfSquadLeaders
p217
I0
sVcollectables
p218
(dp219
VcollectableNumber1
p220
(dp221
VxPos
p222
V-1
p223
sVspriteNum
p224
g60
sVyPos
p225
V1.5
p226
sVlayer
p227
g38
sVcolorNum
p228
g60
sVvisible
p229
VFalse
p230
sVid
p231
V121
p232
ssVcollectableNumber0
p233
(dp234
VxPos
p235
g60
sVspriteNum
p236
g38
sVyPos
p237
V-0.5
p238
sVlayer
p239
g38
sVcolorNum
p240
g38
sVvisible
p241
VFalse
p242
sVid
p243
V120
p244
ssVcollectableNumber3
p245
(dp246
VxPos
p247
V-2
p248
sVspriteNum
p249
g98
sVyPos
p250
V-0.5
p251
sVlayer
p252
g38
sVcolorNum
p253
g98
sVvisible
p254
VFalse
p255
sVid
p256
V123
p257
ssVcollectableNumber2
p258
(dp259
VxPos
p260
g60
sVspriteNum
p261
g48
sVyPos
p262
V1.5
p263
sVlayer
p264
g38
sVcolorNum
p265
g48
sVvisible
p266
VFalse
p267
sVid
p268
V122
p269
ssVcollectableNumber4
p270
(dp271
VxPos
p272
g38
sVspriteNum
p273
V4
p274
sVyPos
p275
V-0.5
p276
sVlayer
p277
g38
sVcolorNum
p278
g274
sVvisible
p279
VFalse
p280
sVid
p281
V124
p282
sssVnumOfWaypoints
p283
I0
sVnumOfLeapfrogs
p284
I0
sVnumOfCollectables
p285
I5
s.