(dp0
VnumOfWalls
p1
I19
sVwaypoints
p2
(dp3
sVsquadLeaders
p4
(dp5
sVlidarLights
p6
(dp7
VlightNumber11
p8
(dp9
VxPos
p10
V0.1550287
p11
sVyPos
p12
V1.975
p13
ssVlightNumber10
p14
(dp15
VxPos
p16
V0.475
p17
sVyPos
p18
V1.009375
p19
ssVlightNumber12
p20
(dp21
VxPos
p22
V-0.8862696
p23
sVyPos
p24
V1.975
p25
ssVlightNumber9
p26
(dp27
VxPos
p28
V0.475
p29
sVyPos
p30
V0.5837554
p31
ssVlightNumber8
p32
(dp33
VxPos
p34
V0.475
p35
sVyPos
p36
V0.2579754
p37
ssVlightNumber1
p38
(dp39
VxPos
p40
V0.4229496
p41
sVyPos
p42
V1.975
p43
ssVlightNumber0
p44
(dp45
VxPos
p46
V0.475
p47
sVyPos
p48
V0.8579382
p49
ssVlightNumber3
p50
(dp51
VxPos
p52
V-2.360493
p53
sVyPos
p54
V1.975
p55
ssVlightNumber2
p56
(dp57
VxPos
p58
V-0.5661994
p59
sVyPos
p60
V1.975
p61
ssVlightNumber5
p62
(dp63
VxPos
p64
V-1.638154
p65
sVyPos
p66
V-0.975
p67
ssVlightNumber4
p68
(dp69
VxPos
p70
V-2.475
p71
sVyPos
p72
V0.2834654
p73
ssVlightNumber7
p74
(dp75
VxPos
p76
V1.207138
p77
sVyPos
p78
V-1.975
p79
ssVlightNumber6
p80
(dp81
VxPos
p82
V-0.2867108
p83
sVyPos
p84
V-0.975
p85
sssVleapfrogs
p86
(dp87
sVglobalData
p88
(dp89
VidCounter
p90
V15
p91
ssVnumOfLidarLights
p92
I13
sVplayer
p93
(dp94
VisHolding
p95
VFalse
p96
sVxPos
p97
V0
p98
sVheldObjID
p99
Vnothing
p100
sVyPos
p101
V0.5
p102
ssVwalls
p103
(dp104
VwallNumber10
p105
(dp106
Vwidth
p107
V1
p108
sVxPos
p109
V2
p110
sVyPos
p111
g98
sVheight
p112
V0.05
p113
ssVwallNumber11
p114
(dp115
Vwidth
p116
g108
sVxPos
p117
g110
sVyPos
p118
V-1
p119
sVheight
p120
V0.05
p121
ssVwallNumber12
p122
(dp123
Vwidth
p124
V0.05
p125
sVxPos
p126
V1.5
p127
sVyPos
p128
V-0.9
p129
sVheight
p130
V0.2
p131
ssVwallNumber13
p132
(dp133
Vwidth
p134
V0.05
p135
sVxPos
p136
V1.5
p137
sVyPos
p138
V-0.09999999
p139
sVheight
p140
V0.2
p141
ssVwallNumber14
p142
(dp143
Vwidth
p144
V0.05
p145
sVxPos
p146
V2.5
p147
sVyPos
p148
V-0.5
p149
sVheight
p150
g108
ssVwallNumber15
p151
(dp152
Vwidth
p153
V7
p154
sVxPos
p155
g98
sVyPos
p156
V3
p157
sVheight
p158
V0.05
p159
ssVwallNumber16
p160
(dp161
Vwidth
p162
g154
sVxPos
p163
g98
sVyPos
p164
V-2
p165
sVheight
p166
V0.05
p167
ssVwallNumber17
p168
(dp169
Vwidth
p170
V0.05
p171
sVxPos
p172
V-3.5
p173
sVyPos
p174
V0.5
p175
sVheight
p176
V5
p177
ssVwallNumber18
p178
(dp179
Vwidth
p180
V0.05
p181
sVxPos
p182
V3.5
p183
sVyPos
p184
V0.5
p185
sVheight
p186
g177
ssVwallNumber8
p187
(dp188
Vwidth
p189
V0.05
p190
sVxPos
p191
V1.5
p192
sVyPos
p193
V1.5
p194
sVheight
p195
g108
ssVwallNumber9
p196
(dp197
Vwidth
p198
V0.05
p199
sVxPos
p200
V2.5
p201
sVyPos
p202
V1.5
p203
sVheight
p204
g108
ssVwallNumber6
p205
(dp206
Vwidth
p207
V0.2
p208
sVxPos
p209
V1.6
p210
sVyPos
p211
g108
sVheight
p212
V0.05
p213
ssVwallNumber7
p214
(dp215
Vwidth
p216
V0.2
p217
sVxPos
p218
V2.4
p219
sVyPos
p220
g108
sVheight
p221
V0.05
p222
ssVwallNumber4
p223
(dp224
Vwidth
p225
V0.05
p226
sVxPos
p227
V0.5
p228
sVyPos
p229
V0.8
p230
sVheight
p231
V2.4
p232
ssVwallNumber5
p233
(dp234
Vwidth
p235
g108
sVxPos
p236
g110
sVyPos
p237
g110
sVheight
p238
V0.05
p239
ssVwallNumber2
p240
(dp241
Vwidth
p242
V0.05
p243
sVxPos
p244
V-2.5
p245
sVyPos
p246
V0.5
p247
sVheight
p248
g157
ssVwallNumber3
p249
(dp250
Vwidth
p251
V0.05
p252
sVxPos
p253
V0.5
p254
sVyPos
p255
V-1
p256
sVheight
p257
g98
ssVwallNumber0
p258
(dp259
Vwidth
p260
g157
sVxPos
p261
V-1
p262
sVyPos
p263
g110
sVheight
p264
V0.05
p265
ssVwallNumber1
p266
(dp267
Vwidth
p268
g157
sVxPos
p269
V-1
p270
sVyPos
p271
V-1
p272
sVheight
p273
V0.05
p274
sssVnumOfSquadLeaders
p275
I0
sVcollectables
p276
(dp277
VcollectableNumber1
p278
(dp279
VxPos
p280
V-2
p281
sVspriteNum
p282
g108
sVyPos
p283
V1.5
p284
sVlayer
p285
g98
sVcolorNum
p286
g108
sVvisible
p287
VFalse
p288
sVid
p289
V11
p290
ssVcollectableNumber0
p291
(dp292
VxPos
p293
V-1
p294
sVspriteNum
p295
g98
sVyPos
p296
V1.5
p297
sVlayer
p298
g98
sVcolorNum
p299
g98
sVvisible
p300
VFalse
p301
sVid
p302
V10
p303
ssVcollectableNumber3
p304
(dp305
VxPos
p306
V-2
p307
sVspriteNum
p308
g157
sVyPos
p309
V0.5
p310
sVlayer
p311
g98
sVcolorNum
p312
g157
sVvisible
p313
VFalse
p314
sVid
p315
V13
p316
ssVcollectableNumber2
p317
(dp318
VxPos
p319
V-2
p320
sVspriteNum
p321
g110
sVyPos
p322
V-0.5
p323
sVlayer
p324
g98
sVcolorNum
p325
g110
sVvisible
p326
VFalse
p327
sVid
p328
V12
p329
ssVcollectableNumber4
p330
(dp331
VxPos
p332
g98
sVspriteNum
p333
V4
p334
sVyPos
p335
V-0.5
p336
sVlayer
p337
g98
sVcolorNum
p338
g334
sVvisible
p339
VFalse
p340
sVid
p341
V14
p342
sssVnumOfWaypoints
p343
I0
sVnumOfLeapfrogs
p344
I0
sVnumOfCollectables
p345
I5
s.