(dp0
VnumOfWalls
p1
I19
sVwaypoints
p2
(dp3
sVsquadLeaders
p4
(dp5
sVlidarLights
p6
(dp7
VlightNumber11
p8
(dp9
VxPos
p10
V0.2601329
p11
sVyPos
p12
V2.975
p13
ssVlightNumber10
p14
(dp15
VxPos
p16
V0.475
p17
sVyPos
p18
V1.009375
p19
ssVlightNumber13
p20
(dp21
VxPos
p22
V-1.175667
p23
sVyPos
p24
V0.975
p25
ssVlightNumber12
p26
(dp27
VxPos
p28
V-0.8862696
p29
sVyPos
p30
V1.975
p31
ssVlightNumber15
p32
(dp33
VxPos
p34
V-0.475
p35
sVyPos
p36
V-0.1079718
p37
ssVlightNumber14
p38
(dp39
VxPos
p40
V-1.772728
p41
sVyPos
p42
V0.02499998
p43
ssVlightNumber9
p44
(dp45
VxPos
p46
V2.475
p47
sVyPos
p48
V0.9364096
p49
ssVlightNumber8
p50
(dp51
VxPos
p52
V2.475
p53
sVyPos
p54
V-0.7610754
p55
ssVlightNumber1
p56
(dp57
VxPos
p58
V0.709695
p59
sVyPos
p60
V2.975
p61
ssVlightNumber0
p62
(dp63
VxPos
p64
V0.475
p65
sVyPos
p66
V0.8579382
p67
ssVlightNumber3
p68
(dp69
VxPos
p70
V-0.7601588
p71
sVyPos
p72
V0.975
p73
ssVlightNumber2
p74
(dp75
VxPos
p76
V-0.4990232
p77
sVyPos
p78
V1.8
p79
ssVlightNumber5
p80
(dp81
VxPos
p82
V-1.638154
p83
sVyPos
p84
V-0.975
p85
ssVlightNumber4
p86
(dp87
VxPos
p88
V-3.475
p89
sVyPos
p90
V0.1959766
p91
ssVlightNumber7
p92
(dp93
VxPos
p94
V0.475
p95
sVyPos
p96
V-0.4738947
p97
ssVlightNumber6
p98
(dp99
VxPos
p100
V-0.481091
p101
sVyPos
p102
V-1.975
p103
sssVleapfrogs
p104
(dp105
sVglobalData
p106
(dp107
VidCounter
p108
V100
p109
ssVnumOfLidarLights
p110
I16
sVplayer
p111
(dp112
VisHolding
p113
VFalse
p114
sVxPos
p115
V0
p116
sVheldObjID
p117
Vnothing
p118
sVyPos
p119
V0.5
p120
ssVwalls
p121
(dp122
VwallNumber10
p123
(dp124
Vwidth
p125
V1.4
p126
sVxPos
p127
V-1.8
p128
sVyPos
p129
g116
sVheight
p130
V0.05
p131
ssVwallNumber11
p132
(dp133
Vwidth
p134
g116
sVxPos
p135
V-0.5
p136
sVyPos
p137
g116
sVheight
p138
V0.05
p139
ssVwallNumber12
p140
(dp141
Vwidth
p142
V2
p143
sVxPos
p144
V-1.5
p145
sVyPos
p146
V-1
p147
sVheight
p148
V0.05
p149
ssVwallNumber13
p150
(dp151
Vwidth
p152
V0.05
p153
sVxPos
p154
V-2.5
p155
sVyPos
p156
V-0.5
p157
sVheight
p158
V1
p159
ssVwallNumber14
p160
(dp161
Vwidth
p162
V0.05
p163
sVxPos
p164
V-0.5
p165
sVyPos
p166
V-0.5
p167
sVheight
p168
g159
ssVwallNumber15
p169
(dp170
Vwidth
p171
V7
p172
sVxPos
p173
g116
sVyPos
p174
V3
p175
sVheight
p176
V0.05
p177
ssVwallNumber16
p178
(dp179
Vwidth
p180
g172
sVxPos
p181
g116
sVyPos
p182
V-2
p183
sVheight
p184
V0.05
p185
ssVwallNumber17
p186
(dp187
Vwidth
p188
V0.05
p189
sVxPos
p190
V-3.5
p191
sVyPos
p192
V0.5
p193
sVheight
p194
V5
p195
ssVwallNumber18
p196
(dp197
Vwidth
p198
V0.05
p199
sVxPos
p200
V3.5
p201
sVyPos
p202
V0.5
p203
sVheight
p204
g195
ssVwallNumber8
p205
(dp206
Vwidth
p207
V0.05
p208
sVxPos
p209
V-0.5
p210
sVyPos
p211
V1.1
p212
sVheight
p213
V0.2
p214
ssVwallNumber9
p215
(dp216
Vwidth
p217
V0.05
p218
sVxPos
p219
V-0.5
p220
sVyPos
p221
V1.9
p222
sVheight
p223
V0.2
p224
ssVwallNumber6
p225
(dp226
Vwidth
p227
g143
sVxPos
p228
V-1.5
p229
sVyPos
p230
g159
sVheight
p231
V0.05
p232
ssVwallNumber7
p233
(dp234
Vwidth
p235
V0.05
p236
sVxPos
p237
V-2.5
p238
sVyPos
p239
V1.5
p240
sVheight
p241
g159
ssVwallNumber4
p242
(dp243
Vwidth
p244
V0.05
p245
sVxPos
p246
V2.5
p247
sVyPos
p248
V0.5
p249
sVheight
p250
g175
ssVwallNumber5
p251
(dp252
Vwidth
p253
g143
sVxPos
p254
V-1.5
p255
sVyPos
p256
g143
sVheight
p257
V0.05
p258
ssVwallNumber2
p259
(dp260
Vwidth
p261
V0.05
p262
sVxPos
p263
V0.5
p264
sVyPos
p265
V-0.4
p266
sVheight
p267
V1.2
p268
ssVwallNumber3
p269
(dp270
Vwidth
p271
V0.05
p272
sVxPos
p273
V0.5
p274
sVyPos
p275
V1.4
p276
sVheight
p277
V1.2
p278
ssVwallNumber0
p279
(dp280
Vwidth
p281
g143
sVxPos
p282
V1.5
p283
sVyPos
p284
g143
sVheight
p285
V0.05
p286
ssVwallNumber1
p287
(dp288
Vwidth
p289
g143
sVxPos
p290
V1.5
p291
sVyPos
p292
V-1
p293
sVheight
p294
V0.05
p295
sssVnumOfSquadLeaders
p296
I0
sVcollectables
p297
(dp298
VcollectableNumber1
p299
(dp300
VxPos
p301
g159
sVspriteNum
p302
g159
sVyPos
p303
V-0.5
p304
sVlayer
p305
g116
sVcolorNum
p306
g159
sVvisible
p307
VFalse
p308
sVid
p309
V96
p310
ssVcollectableNumber0
p311
(dp312
VxPos
p313
g143
sVspriteNum
p314
g116
sVyPos
p315
V1.5
p316
sVlayer
p317
g116
sVcolorNum
p318
g116
sVvisible
p319
VFalse
p320
sVid
p321
V95
p322
ssVcollectableNumber3
p323
(dp324
VxPos
p325
g159
sVspriteNum
p326
g175
sVyPos
p327
V0.5
p328
sVlayer
p329
g116
sVcolorNum
p330
g175
sVvisible
p331
VFalse
p332
sVid
p333
V98
p334
ssVcollectableNumber2
p335
(dp336
VxPos
p337
g159
sVspriteNum
p338
g143
sVyPos
p339
V1.5
p340
sVlayer
p341
g116
sVcolorNum
p342
g143
sVvisible
p343
VFalse
p344
sVid
p345
V97
p346
ssVcollectableNumber4
p347
(dp348
VxPos
p349
g143
sVspriteNum
p350
V4
p351
sVyPos
p352
V0.5
p353
sVlayer
p354
g116
sVcolorNum
p355
g351
sVvisible
p356
VFalse
p357
sVid
p358
V99
p359
sssVnumOfWaypoints
p360
I0
sVnumOfLeapfrogs
p361
I0
sVnumOfCollectables
p362
I5
s.