(dp0
VnumOfWalls
p1
I14
sVwaypoints
p2
(dp3
sVsquadLeaders
p4
(dp5
sVlidarLights
p6
(dp7
VlightNumber1
p8
(dp9
VxPos
p10
V0.2601329
p11
sVyPos
p12
V2.975
p13
ssVlightNumber0
p14
(dp15
VxPos
p16
V0.475
p17
sVyPos
p18
V1.009375
p19
ssVlightNumber3
p20
(dp21
VxPos
p22
V-0.475
p23
sVyPos
p24
V0.6919123
p25
ssVlightNumber2
p26
(dp27
VxPos
p28
V-0.475
p29
sVyPos
p30
V1.290533
p31
ssVlightNumber4
p32
(dp33
VxPos
p34
V-0.475
p35
sVyPos
p36
V0.3727244
p37
sssVleapfrogs
p38
(dp39
sVglobalData
p40
(dp41
VidCounter
p42
V95
p43
ssVnumOfLidarLights
p44
I5
sVplayer
p45
(dp46
VisHolding
p47
VFalse
p48
sVxPos
p49
V0
p50
sVheldObjID
p51
Vnothing
p52
sVyPos
p53
V0.5
p54
ssVwalls
p55
(dp56
VwallNumber10
p57
(dp58
Vwidth
p59
V7
p60
sVxPos
p61
g50
sVyPos
p62
V3
p63
sVheight
p64
V0.05
p65
ssVwallNumber11
p66
(dp67
Vwidth
p68
g60
sVxPos
p69
g50
sVyPos
p70
V-2
p71
sVheight
p72
V0.05
p73
ssVwallNumber12
p74
(dp75
Vwidth
p76
V0.05
p77
sVxPos
p78
V-3.5
p79
sVyPos
p80
V0.5
p81
sVheight
p82
V5
p83
ssVwallNumber13
p84
(dp85
Vwidth
p86
V0.05
p87
sVxPos
p88
V3.5
p89
sVyPos
p90
V0.5
p91
sVheight
p92
g83
ssVwallNumber8
p93
(dp94
Vwidth
p95
V0.05
p96
sVxPos
p97
V0.5
p98
sVyPos
p99
V0.8
p100
sVheight
p101
V2.4
p102
ssVwallNumber9
p103
(dp104
Vwidth
p105
V0.05
p106
sVxPos
p107
V2.5
p108
sVyPos
p109
V0.5
p110
sVheight
p111
g63
ssVwallNumber6
p112
(dp113
Vwidth
p114
V2
p115
sVxPos
p116
V1.5
p117
sVyPos
p118
V-1
p119
sVheight
p120
V0.05
p121
ssVwallNumber7
p122
(dp123
Vwidth
p124
V0.05
p125
sVxPos
p126
V0.5
p127
sVyPos
p128
V-1
p129
sVheight
p130
g50
ssVwallNumber4
p131
(dp132
Vwidth
p133
V0.05
p134
sVxPos
p135
V-0.5
p136
sVyPos
p137
V0.8
p138
sVheight
p139
V2.4
p140
ssVwallNumber5
p141
(dp142
Vwidth
p143
g115
sVxPos
p144
V1.5
p145
sVyPos
p146
g115
sVheight
p147
V0.05
p148
ssVwallNumber2
p149
(dp150
Vwidth
p151
V0.05
p152
sVxPos
p153
V-2.5
p154
sVyPos
p155
V0.5
p156
sVheight
p157
g63
ssVwallNumber3
p158
(dp159
Vwidth
p160
V0.05
p161
sVxPos
p162
V-0.5
p163
sVyPos
p164
V-1
p165
sVheight
p166
g50
ssVwallNumber0
p167
(dp168
Vwidth
p169
g115
sVxPos
p170
V-1.5
p171
sVyPos
p172
g115
sVheight
p173
V0.05
p174
ssVwallNumber1
p175
(dp176
Vwidth
p177
g115
sVxPos
p178
V-1.5
p179
sVyPos
p180
V-1
p181
sVheight
p182
V0.05
p183
sssVnumOfSquadLeaders
p184
I0
sVcollectables
p185
(dp186
VcollectableNumber1
p187
(dp188
VxPos
p189
V-2
p190
sVspriteNum
p191
V1
p192
sVyPos
p193
V0.5
p194
sVlayer
p195
g50
sVcolorNum
p196
g192
sVvisible
p197
VFalse
p198
sVid
p199
V91
p200
ssVcollectableNumber0
p201
(dp202
VxPos
p203
V-1
p204
sVspriteNum
p205
g50
sVyPos
p206
V-0.5
p207
sVlayer
p208
g115
sVcolorNum
p209
g50
sVvisible
p210
VTrue
p211
sVid
p212
V90
p213
ssVcollectableNumber3
p214
(dp215
VxPos
p216
g115
sVspriteNum
p217
g63
sVyPos
p218
V0.5
p219
sVlayer
p220
g50
sVcolorNum
p221
g63
sVvisible
p222
VFalse
p223
sVid
p224
V93
p225
ssVcollectableNumber2
p226
(dp227
VxPos
p228
g115
sVspriteNum
p229
g115
sVyPos
p230
V1.5
p231
sVlayer
p232
g50
sVcolorNum
p233
g115
sVvisible
p234
VFalse
p235
sVid
p236
V92
p237
ssVcollectableNumber4
p238
(dp239
VxPos
p240
g192
sVspriteNum
p241
V4
p242
sVyPos
p243
V1.5
p244
sVlayer
p245
g50
sVcolorNum
p246
g242
sVvisible
p247
VFalse
p248
sVid
p249
V94
p250
sssVnumOfWaypoints
p251
I0
sVnumOfLeapfrogs
p252
I0
sVnumOfCollectables
p253
I5
s.