(dp0
VnumOfWalls
p1
I19
sVwaypoints
p2
(dp3
sVsquadLeaders
p4
(dp5
sVlidarLights
p6
(dp7
VlightNumber9
p8
(dp9
VxPos
p10
V0.1550287
p11
sVyPos
p12
V1.975
p13
ssVlightNumber8
p14
(dp15
VxPos
p16
V0.475
p17
sVyPos
p18
V1.009375
p19
ssVlightNumber1
p20
(dp21
VxPos
p22
V0.4229496
p23
sVyPos
p24
V1.975
p25
ssVlightNumber0
p26
(dp27
VxPos
p28
V0.475
p29
sVyPos
p30
V0.8579382
p31
ssVlightNumber3
p32
(dp33
VxPos
p34
V-2.360493
p35
sVyPos
p36
V1.975
p37
ssVlightNumber2
p38
(dp39
VxPos
p40
V-0.5661994
p41
sVyPos
p42
V1.975
p43
ssVlightNumber5
p44
(dp45
VxPos
p46
V0.475
p47
sVyPos
p48
V-0.4738947
p49
ssVlightNumber4
p50
(dp51
VxPos
p52
V-0.2867108
p53
sVyPos
p54
V-0.975
p55
ssVlightNumber7
p56
(dp57
VxPos
p58
V0.475
p59
sVyPos
p60
V0.5837554
p61
ssVlightNumber6
p62
(dp63
VxPos
p64
V0.475
p65
sVyPos
p66
V0.2579754
p67
sssVleapfrogs
p68
(dp69
sVglobalData
p70
(dp71
VidCounter
p72
V50
p73
ssVnumOfLidarLights
p74
I10
sVplayer
p75
(dp76
VisHolding
p77
VFalse
p78
sVxPos
p79
V0
p80
sVheldObjID
p81
Vnothing
p82
sVyPos
p83
V0.5
p84
ssVwalls
p85
(dp86
VwallNumber10
p87
(dp88
Vwidth
p89
V0.2
p90
sVxPos
p91
V1.6
p92
sVyPos
p93
g80
sVheight
p94
V0.05
p95
ssVwallNumber11
p96
(dp97
Vwidth
p98
V0.2
p99
sVxPos
p100
V2.4
p101
sVyPos
p102
g80
sVheight
p103
V0.05
p104
ssVwallNumber12
p105
(dp106
Vwidth
p107
V1
p108
sVxPos
p109
V2
p110
sVyPos
p111
V-1
p112
sVheight
p113
V0.05
p114
ssVwallNumber13
p115
(dp116
Vwidth
p117
V0.05
p118
sVxPos
p119
V1.5
p120
sVyPos
p121
V-0.5
p122
sVheight
p123
g108
ssVwallNumber14
p124
(dp125
Vwidth
p126
V0.05
p127
sVxPos
p128
V2.5
p129
sVyPos
p130
V-0.5
p131
sVheight
p132
g108
ssVwallNumber15
p133
(dp134
Vwidth
p135
V7
p136
sVxPos
p137
g80
sVyPos
p138
V3
p139
sVheight
p140
V0.05
p141
ssVwallNumber16
p142
(dp143
Vwidth
p144
g136
sVxPos
p145
g80
sVyPos
p146
V-2
p147
sVheight
p148
V0.05
p149
ssVwallNumber17
p150
(dp151
Vwidth
p152
V0.05
p153
sVxPos
p154
V-3.5
p155
sVyPos
p156
V0.5
p157
sVheight
p158
V5
p159
ssVwallNumber18
p160
(dp161
Vwidth
p162
V0.05
p163
sVxPos
p164
V3.5
p165
sVyPos
p166
V0.5
p167
sVheight
p168
g159
ssVwallNumber8
p169
(dp170
Vwidth
p171
V0.05
p172
sVxPos
p173
V1.5
p174
sVyPos
p175
V1.5
p176
sVheight
p177
g108
ssVwallNumber9
p178
(dp179
Vwidth
p180
V0.05
p181
sVxPos
p182
V2.5
p183
sVyPos
p184
V1.5
p185
sVheight
p186
g108
ssVwallNumber6
p187
(dp188
Vwidth
p189
V0.2
p190
sVxPos
p191
V1.6
p192
sVyPos
p193
g108
sVheight
p194
V0.05
p195
ssVwallNumber7
p196
(dp197
Vwidth
p198
V0.2
p199
sVxPos
p200
V2.4
p201
sVyPos
p202
g108
sVheight
p203
V0.05
p204
ssVwallNumber4
p205
(dp206
Vwidth
p207
V0.05
p208
sVxPos
p209
V0.5
p210
sVyPos
p211
g110
sVheight
p212
g80
ssVwallNumber5
p213
(dp214
Vwidth
p215
g108
sVxPos
p216
g110
sVyPos
p217
g110
sVheight
p218
V0.05
p219
ssVwallNumber2
p220
(dp221
Vwidth
p222
V0.05
p223
sVxPos
p224
V-2.5
p225
sVyPos
p226
V0.5
p227
sVheight
p228
g139
ssVwallNumber3
p229
(dp230
Vwidth
p231
V0.05
p232
sVxPos
p233
V0.5
p234
sVyPos
p235
V0.2
p236
sVheight
p237
V2.4
p238
ssVwallNumber0
p239
(dp240
Vwidth
p241
g139
sVxPos
p242
V-1
p243
sVyPos
p244
g110
sVheight
p245
V0.05
p246
ssVwallNumber1
p247
(dp248
Vwidth
p249
g139
sVxPos
p250
V-1
p251
sVyPos
p252
V-1
p253
sVheight
p254
V0.05
p255
sssVnumOfSquadLeaders
p256
I0
sVcollectables
p257
(dp258
VcollectableNumber1
p259
(dp260
VxPos
p261
V-2
p262
sVspriteNum
p263
g108
sVyPos
p264
V0.5
p265
sVlayer
p266
g80
sVcolorNum
p267
g108
sVvisible
p268
VFalse
p269
sVid
p270
V46
p271
ssVcollectableNumber0
p272
(dp273
VxPos
p274
g110
sVspriteNum
p275
g80
sVyPos
p276
V-0.5
p277
sVlayer
p278
g80
sVcolorNum
p279
g80
sVvisible
p280
VFalse
p281
sVid
p282
V45
p283
ssVcollectableNumber3
p284
(dp285
VxPos
p286
V-1
p287
sVspriteNum
p288
g139
sVyPos
p289
V0.5
p290
sVlayer
p291
g110
sVcolorNum
p292
g139
sVvisible
p293
VTrue
p294
sVid
p295
V48
p296
ssVcollectableNumber2
p297
(dp298
VxPos
p299
V-2
p300
sVspriteNum
p301
g110
sVyPos
p302
V1.5
p303
sVlayer
p304
g80
sVcolorNum
p305
g110
sVvisible
p306
VFalse
p307
sVid
p308
V47
p309
ssVcollectableNumber4
p310
(dp311
VxPos
p312
V-1
p313
sVspriteNum
p314
V4
p315
sVyPos
p316
V-0.5
p317
sVlayer
p318
g110
sVcolorNum
p319
g315
sVvisible
p320
VTrue
p321
sVid
p322
V49
p323
sssVnumOfWaypoints
p324
I0
sVnumOfLeapfrogs
p325
I0
sVnumOfCollectables
p326
I5
s.