(dp0
VnumOfWalls
p1
I24
sVwaypoints
p2
(dp3
sVsquadLeaders
p4
(dp5
sVlidarLights
p6
(dp7
VlightNumber11
p8
(dp9
VxPos
p10
V0.0499245
p11
sVyPos
p12
V0.975
p13
ssVlightNumber10
p14
(dp15
VxPos
p16
V0.4429448
p17
sVyPos
p18
V0.975
p19
ssVlightNumber13
p20
(dp21
VxPos
p22
V-1.475
p23
sVyPos
p24
V1.095938
p25
ssVlightNumber12
p26
(dp27
VxPos
p28
V-0.2854089
p29
sVyPos
p30
V0.975
p31
ssVlightNumber15
p32
(dp33
VxPos
p34
V-0.475
p35
sVyPos
p36
V-0.1079718
p37
ssVlightNumber14
p38
(dp39
VxPos
p40
V-1.772728
p41
sVyPos
p42
V0.02499998
p43
ssVlightNumber17
p44
(dp45
VxPos
p46
V0.475
p47
sVyPos
p48
V-0.1537815
p49
ssVlightNumber16
p50
(dp51
VxPos
p52
V-0.04320176
p53
sVyPos
p54
V-1.975
p55
ssVlightNumber9
p56
(dp57
VxPos
p58
V0.475
p59
sVyPos
p60
V0.5837554
p61
ssVlightNumber8
p62
(dp63
VxPos
p64
V0.475
p65
sVyPos
p66
V0.2579754
p67
ssVlightNumber1
p68
(dp69
VxPos
p70
V0.1362041
p71
sVyPos
p72
V0.975
p73
ssVlightNumber0
p74
(dp75
VxPos
p76
V0.475
p77
sVyPos
p78
V0.8579382
p79
ssVlightNumber3
p80
(dp81
VxPos
p82
V-2.360493
p83
sVyPos
p84
V1.975
p85
ssVlightNumber2
p86
(dp87
VxPos
p88
V-0.1823354
p89
sVyPos
p90
V0.975
p91
ssVlightNumber5
p92
(dp93
VxPos
p94
V-1.638154
p95
sVyPos
p96
V-0.975
p97
ssVlightNumber4
p98
(dp99
VxPos
p100
V-3.475
p101
sVyPos
p102
V0.1959766
p103
ssVlightNumber7
p104
(dp105
VxPos
p106
V0.7194053
p107
sVyPos
p108
V-0.975
p109
ssVlightNumber6
p110
(dp111
VxPos
p112
V-0.481091
p113
sVyPos
p114
V-1.975
p115
sssVleapfrogs
p116
(dp117
sVglobalData
p118
(dp119
VidCounter
p120
V15
p121
ssVnumOfLidarLights
p122
I18
sVplayer
p123
(dp124
VisHolding
p125
VFalse
p126
sVxPos
p127
V0
p128
sVheldObjID
p129
Vnothing
p130
sVyPos
p131
V0.5
p132
ssVwalls
p133
(dp134
VwallNumber21
p135
(dp136
Vwidth
p137
V7
p138
sVxPos
p139
g128
sVyPos
p140
V-2
p141
sVheight
p142
V0.05
p143
ssVwallNumber20
p144
(dp145
Vwidth
p146
g138
sVxPos
p147
g128
sVyPos
p148
V3
p149
sVheight
p150
V0.05
p151
ssVwallNumber23
p152
(dp153
Vwidth
p154
V0.05
p155
sVxPos
p156
V3.5
p157
sVyPos
p158
V0.5
p159
sVheight
p160
V5
p161
ssVwallNumber22
p162
(dp163
Vwidth
p164
V0.05
p165
sVxPos
p166
V-3.5
p167
sVyPos
p168
V0.5
p169
sVheight
p170
g161
ssVwallNumber10
p171
(dp172
Vwidth
p173
V1.4
p174
sVxPos
p175
V-1.8
p176
sVyPos
p177
g128
sVheight
p178
V0.05
p179
ssVwallNumber11
p180
(dp181
Vwidth
p182
g128
sVxPos
p183
V-0.5
p184
sVyPos
p185
g128
sVheight
p186
V0.05
p187
ssVwallNumber12
p188
(dp189
Vwidth
p190
V2
p191
sVxPos
p192
V-1.5
p193
sVyPos
p194
V-1
p195
sVheight
p196
V0.05
p197
ssVwallNumber13
p198
(dp199
Vwidth
p200
V0.05
p201
sVxPos
p202
V-2.5
p203
sVyPos
p204
V-0.5
p205
sVheight
p206
V1
p207
ssVwallNumber14
p208
(dp209
Vwidth
p210
V0.05
p211
sVxPos
p212
V-0.5
p213
sVyPos
p214
V-0.5
p215
sVheight
p216
g207
ssVwallNumber15
p217
(dp218
Vwidth
p219
g207
sVxPos
p220
V-2
p221
sVyPos
p222
g191
sVheight
p223
V0.05
p224
ssVwallNumber16
p225
(dp226
Vwidth
p227
g207
sVxPos
p228
V-2
p229
sVyPos
p230
g207
sVheight
p231
V0.05
p232
ssVwallNumber17
p233
(dp234
Vwidth
p235
V0.05
p236
sVxPos
p237
V-2.5
p238
sVyPos
p239
V1.5
p240
sVheight
p241
g207
ssVwallNumber18
p242
(dp243
Vwidth
p244
V0.05
p245
sVxPos
p246
V-1.5
p247
sVyPos
p248
V1.1
p249
sVheight
p250
V0.2
p251
ssVwallNumber19
p252
(dp253
Vwidth
p254
V0.05
p255
sVxPos
p256
V-1.5
p257
sVyPos
p258
V1.9
p259
sVheight
p260
V0.2
p261
ssVwallNumber8
p262
(dp263
Vwidth
p264
V0.05
p265
sVxPos
p266
V0.5
p267
sVyPos
p268
V0.3
p269
sVheight
p270
V1.4
p271
ssVwallNumber9
p272
(dp273
Vwidth
p274
V0.05
p275
sVxPos
p276
V2.5
p277
sVyPos
p278
g128
sVheight
p279
g191
ssVwallNumber6
p280
(dp281
Vwidth
p282
g191
sVxPos
p283
V1.5
p284
sVyPos
p285
V-1
p286
sVheight
p287
V0.05
p288
ssVwallNumber7
p289
(dp290
Vwidth
p291
V0.05
p292
sVxPos
p293
V0.5
p294
sVyPos
p295
V-1
p296
sVheight
p297
g128
ssVwallNumber4
p298
(dp299
Vwidth
p300
V0.05
p301
sVxPos
p302
V2.5
p303
sVyPos
p304
V1.5
p305
sVheight
p306
g207
ssVwallNumber5
p307
(dp308
Vwidth
p309
g191
sVxPos
p310
V1.5
p311
sVyPos
p312
g207
sVheight
p313
V0.05
p314
ssVwallNumber2
p315
(dp316
Vwidth
p317
V0.05
p318
sVxPos
p319
V-0.5
p320
sVyPos
p321
V1.1
p322
sVheight
p323
V0.2
p324
ssVwallNumber3
p325
(dp326
Vwidth
p327
V0.05
p328
sVxPos
p329
V-0.5
p330
sVyPos
p331
V1.9
p332
sVheight
p333
V0.2
p334
ssVwallNumber0
p335
(dp336
Vwidth
p337
g149
sVxPos
p338
g207
sVyPos
p339
g191
sVheight
p340
V0.05
p341
ssVwallNumber1
p342
(dp343
Vwidth
p344
g149
sVxPos
p345
g207
sVyPos
p346
g207
sVheight
p347
V0.05
p348
sssVnumOfSquadLeaders
p349
I0
sVcollectables
p350
(dp351
VcollectableNumber1
p352
(dp353
VxPos
p354
V-2
p355
sVspriteNum
p356
g207
sVyPos
p357
V-0.5
p358
sVlayer
p359
g128
sVcolorNum
p360
g207
sVvisible
p361
VFalse
p362
sVid
p363
V11
p364
ssVcollectableNumber0
p365
(dp366
VxPos
p367
g191
sVspriteNum
p368
g128
sVyPos
p369
V1.5
p370
sVlayer
p371
g128
sVcolorNum
p372
g128
sVvisible
p373
VFalse
p374
sVid
p375
V10
p376
ssVcollectableNumber3
p377
(dp378
VxPos
p379
V-2
p380
sVspriteNum
p381
g149
sVyPos
p382
V1.5
p383
sVlayer
p384
g128
sVcolorNum
p385
g149
sVvisible
p386
VFalse
p387
sVid
p388
V13
p389
ssVcollectableNumber2
p390
(dp391
VxPos
p392
g207
sVspriteNum
p393
g191
sVyPos
p394
V1.5
p395
sVlayer
p396
g128
sVcolorNum
p397
g191
sVvisible
p398
VFalse
p399
sVid
p400
V12
p401
ssVcollectableNumber4
p402
(dp403
VxPos
p404
g207
sVspriteNum
p405
V4
p406
sVyPos
p407
V0.5
p408
sVlayer
p409
g128
sVcolorNum
p410
g406
sVvisible
p411
VFalse
p412
sVid
p413
V14
p414
sssVnumOfWaypoints
p415
I0
sVnumOfLeapfrogs
p416
I0
sVnumOfCollectables
p417
I5
s.