(dp0
VnumOfWalls
p1
I19
sVwaypoints
p2
(dp3
sVsquadLeaders
p4
(dp5
sVlidarLights
p6
(dp7
VlightNumber10
p8
(dp9
VxPos
p10
V0.475
p11
sVyPos
p12
V1.009375
p13
ssVlightNumber9
p14
(dp15
VxPos
p16
V1.475
p17
sVyPos
p18
V0.7600825
p19
ssVlightNumber8
p20
(dp21
VxPos
p22
V1.475
p23
sVyPos
p24
V-0.2515501
p25
ssVlightNumber1
p26
(dp27
VxPos
p28
V0.4229496
p29
sVyPos
p30
V1.975
p31
ssVlightNumber0
p32
(dp33
VxPos
p34
V1.957392
p35
sVyPos
p36
V1.975
p37
ssVlightNumber3
p38
(dp39
VxPos
p40
V-0.7601588
p41
sVyPos
p42
V0.975
p43
ssVlightNumber2
p44
(dp45
VxPos
p46
V-0.1823354
p47
sVyPos
p48
V0.975
p49
ssVlightNumber5
p50
(dp51
VxPos
p52
V-0.527541
p53
sVyPos
p54
V0.02500001
p55
ssVlightNumber4
p56
(dp57
VxPos
p58
V-3.475
p59
sVyPos
p60
V0.1959766
p61
ssVlightNumber7
p62
(dp63
VxPos
p64
V0.2316729
p65
sVyPos
p66
V0.02499998
p67
ssVlightNumber6
p68
(dp69
VxPos
p70
V-0.09233059
p71
sVyPos
p72
V0.02500001
p73
sssVleapfrogs
p74
(dp75
sVglobalData
p76
(dp77
VidCounter
p78
V25
p79
ssVnumOfLidarLights
p80
I11
sVplayer
p81
(dp82
VisHolding
p83
VFalse
p84
sVxPos
p85
V0
p86
sVheldObjID
p87
Vnothing
p88
sVyPos
p89
V0.5
p90
ssVwalls
p91
(dp92
VwallNumber10
p93
(dp94
Vwidth
p95
g86
sVxPos
p96
V-2.5
p97
sVyPos
p98
g86
sVheight
p99
V0.05
p100
ssVwallNumber11
p101
(dp102
Vwidth
p103
V2.4
p104
sVxPos
p105
V-0.7
p106
sVyPos
p107
g86
sVheight
p108
V0.05
p109
ssVwallNumber12
p110
(dp111
Vwidth
p112
V3
p113
sVxPos
p114
V-1
p115
sVyPos
p116
V-1
p117
sVheight
p118
V0.05
p119
ssVwallNumber13
p120
(dp121
Vwidth
p122
V0.05
p123
sVxPos
p124
V-2.5
p125
sVyPos
p126
V-0.5
p127
sVheight
p128
V1
p129
ssVwallNumber14
p130
(dp131
Vwidth
p132
V0.05
p133
sVxPos
p134
V0.5
p135
sVyPos
p136
V-0.5
p137
sVheight
p138
g129
ssVwallNumber15
p139
(dp140
Vwidth
p141
V7
p142
sVxPos
p143
g86
sVyPos
p144
g113
sVheight
p145
V0.05
p146
ssVwallNumber16
p147
(dp148
Vwidth
p149
g142
sVxPos
p150
g86
sVyPos
p151
V-2
p152
sVheight
p153
V0.05
p154
ssVwallNumber17
p155
(dp156
Vwidth
p157
V0.05
p158
sVxPos
p159
V-3.5
p160
sVyPos
p161
V0.5
p162
sVheight
p163
V5
p164
ssVwallNumber18
p165
(dp166
Vwidth
p167
V0.05
p168
sVxPos
p169
V3.5
p170
sVyPos
p171
V0.5
p172
sVheight
p173
g164
ssVwallNumber8
p174
(dp175
Vwidth
p176
V0.05
p177
sVxPos
p178
V1.5
p179
sVyPos
p180
V2
p181
sVheight
p182
g86
ssVwallNumber9
p183
(dp184
Vwidth
p185
V0.05
p186
sVxPos
p187
V2.5
p188
sVyPos
p189
V0.5
p190
sVheight
p191
g113
ssVwallNumber6
p192
(dp193
Vwidth
p194
g129
sVxPos
p195
g181
sVyPos
p196
V-1
p197
sVheight
p198
V0.05
p199
ssVwallNumber7
p200
(dp201
Vwidth
p202
V0.05
p203
sVxPos
p204
V1.5
p205
sVyPos
p206
V0.2
p207
sVheight
p208
V2.4
p209
ssVwallNumber4
p210
(dp211
Vwidth
p212
V0.05
p213
sVxPos
p214
V0.5
p215
sVyPos
p216
V1.5
p217
sVheight
p218
g129
ssVwallNumber5
p219
(dp220
Vwidth
p221
g129
sVxPos
p222
g181
sVyPos
p223
g181
sVheight
p224
V0.05
p225
ssVwallNumber2
p226
(dp227
Vwidth
p228
g86
sVxPos
p229
V0.5
p230
sVyPos
p231
g129
sVheight
p232
V0.05
p233
ssVwallNumber3
p234
(dp235
Vwidth
p236
V0.05
p237
sVxPos
p238
V-2.5
p239
sVyPos
p240
V1.5
p241
sVheight
p242
g129
ssVwallNumber0
p243
(dp244
Vwidth
p245
g113
sVxPos
p246
V-1
p247
sVyPos
p248
g181
sVheight
p249
V0.05
p250
ssVwallNumber1
p251
(dp252
Vwidth
p253
V2.4
p254
sVxPos
p255
V-1.3
p256
sVyPos
p257
g129
sVheight
p258
V0.05
p259
sssVnumOfSquadLeaders
p260
I0
sVcollectables
p261
(dp262
VcollectableNumber1
p263
(dp264
VxPos
p265
g181
sVspriteNum
p266
g129
sVyPos
p267
V1.5
p268
sVlayer
p269
g86
sVcolorNum
p270
g129
sVvisible
p271
VFalse
p272
sVid
p273
V21
p274
ssVcollectableNumber0
p275
(dp276
VxPos
p277
V-1
p278
sVspriteNum
p279
g86
sVyPos
p280
V1.5
p281
sVlayer
p282
g86
sVcolorNum
p283
g86
sVvisible
p284
VFalse
p285
sVid
p286
V20
p287
ssVcollectableNumber3
p288
(dp289
VxPos
p290
g86
sVspriteNum
p291
g113
sVyPos
p292
V1.5
p293
sVlayer
p294
g86
sVcolorNum
p295
g113
sVvisible
p296
VFalse
p297
sVid
p298
V23
p299
ssVcollectableNumber2
p300
(dp301
VxPos
p302
V-1
p303
sVspriteNum
p304
g181
sVyPos
p305
V-0.5
p306
sVlayer
p307
g86
sVcolorNum
p308
g181
sVvisible
p309
VFalse
p310
sVid
p311
V22
p312
ssVcollectableNumber4
p313
(dp314
VxPos
p315
V-2
p316
sVspriteNum
p317
V4
p318
sVyPos
p319
V-0.5
p320
sVlayer
p321
g86
sVcolorNum
p322
g318
sVvisible
p323
VFalse
p324
sVid
p325
V24
p326
sssVnumOfWaypoints
p327
I0
sVnumOfLeapfrogs
p328
I0
sVnumOfCollectables
p329
I5
s.