(dp0
VnumOfWalls
p1
I19
sVwaypoints
p2
(dp3
sVsquadLeaders
p4
(dp5
sVlidarLights
p6
(dp7
VlightNumber11
p8
(dp9
VxPos
p10
V-0.475
p11
sVyPos
p12
V1.290533
p13
ssVlightNumber10
p14
(dp15
VxPos
p16
V0.2601329
p17
sVyPos
p18
V2.975
p19
ssVlightNumber9
p20
(dp21
VxPos
p22
V0.475
p23
sVyPos
p24
V1.009375
p25
ssVlightNumber8
p26
(dp27
VxPos
p28
V3.475
p29
sVyPos
p30
V1.112737
p31
ssVlightNumber1
p32
(dp33
VxPos
p34
V0.709695
p35
sVyPos
p36
V2.975
p37
ssVlightNumber0
p38
(dp39
VxPos
p40
V1.957392
p41
sVyPos
p42
V1.975
p43
ssVlightNumber3
p44
(dp45
VxPos
p46
V-0.4801002
p47
sVyPos
p48
V0.8
p49
ssVlightNumber2
p50
(dp51
VxPos
p52
V-0.475
p53
sVyPos
p54
V1.737418
p55
ssVlightNumber5
p56
(dp57
VxPos
p58
V-0.475
p59
sVyPos
p60
V0.07230815
p61
ssVlightNumber4
p62
(dp63
VxPos
p64
V-2.475
p65
sVyPos
p66
V0.2834654
p67
ssVlightNumber7
p68
(dp69
VxPos
p70
V0.475
p71
sVyPos
p72
V-0.4738947
p73
ssVlightNumber6
p74
(dp75
VxPos
p76
V-0.481091
p77
sVyPos
p78
V-1.975
p79
sssVleapfrogs
p80
(dp81
sVglobalData
p82
(dp83
VidCounter
p84
V30
p85
ssVnumOfLidarLights
p86
I12
sVplayer
p87
(dp88
VisHolding
p89
VFalse
p90
sVxPos
p91
V0
p92
sVheldObjID
p93
Vnothing
p94
sVyPos
p95
V0.5
p96
ssVwalls
p97
(dp98
VwallNumber10
p99
(dp100
Vwidth
p101
V2
p102
sVxPos
p103
V1.5
p104
sVyPos
p105
g102
sVheight
p106
V0.05
p107
ssVwallNumber11
p108
(dp109
Vwidth
p110
g92
sVxPos
p111
V0.5
p112
sVyPos
p113
V1
p114
sVheight
p115
V0.05
p116
ssVwallNumber12
p117
(dp118
Vwidth
p119
V1.4
p120
sVxPos
p121
V1.8
p122
sVyPos
p123
g114
sVheight
p124
V0.05
p125
ssVwallNumber13
p126
(dp127
Vwidth
p128
V0.05
p129
sVxPos
p130
V0.5
p131
sVyPos
p132
V1.5
p133
sVheight
p134
g114
ssVwallNumber14
p135
(dp136
Vwidth
p137
V0.05
p138
sVxPos
p139
V2.5
p140
sVyPos
p141
V1.5
p142
sVheight
p143
g114
ssVwallNumber15
p144
(dp145
Vwidth
p146
V7
p147
sVxPos
p148
g92
sVyPos
p149
V3
p150
sVheight
p151
V0.05
p152
ssVwallNumber16
p153
(dp154
Vwidth
p155
g147
sVxPos
p156
g92
sVyPos
p157
V-2
p158
sVheight
p159
V0.05
p160
ssVwallNumber17
p161
(dp162
Vwidth
p163
V0.05
p164
sVxPos
p165
V-3.5
p166
sVyPos
p167
V0.5
p168
sVheight
p169
V5
p170
ssVwallNumber18
p171
(dp172
Vwidth
p173
V0.05
p174
sVxPos
p175
V3.5
p176
sVyPos
p177
V0.5
p178
sVheight
p179
g170
ssVwallNumber8
p180
(dp181
Vwidth
p182
V0.05
p183
sVxPos
p184
V0.5
p185
sVyPos
p186
V-0.5
p187
sVheight
p188
g114
ssVwallNumber9
p189
(dp190
Vwidth
p191
V0.05
p192
sVxPos
p193
V2.5
p194
sVyPos
p195
V-0.5
p196
sVheight
p197
g114
ssVwallNumber6
p198
(dp199
Vwidth
p200
V1.4
p201
sVxPos
p202
V1.8
p203
sVyPos
p204
g92
sVheight
p205
V0.05
p206
ssVwallNumber7
p207
(dp208
Vwidth
p209
g102
sVxPos
p210
V1.5
p211
sVyPos
p212
V-1
p213
sVheight
p214
V0.05
p215
ssVwallNumber4
p216
(dp217
Vwidth
p218
V0.05
p219
sVxPos
p220
V-0.5
p221
sVyPos
p222
V1.4
p223
sVheight
p224
V1.2
p225
ssVwallNumber5
p226
(dp227
Vwidth
p228
g92
sVxPos
p229
V0.5
p230
sVyPos
p231
g92
sVheight
p232
V0.05
p233
ssVwallNumber2
p234
(dp235
Vwidth
p236
V0.05
p237
sVxPos
p238
V-2.5
p239
sVyPos
p240
V0.5
p241
sVheight
p242
g150
ssVwallNumber3
p243
(dp244
Vwidth
p245
V0.05
p246
sVxPos
p247
V-0.5
p248
sVyPos
p249
V-0.4
p250
sVheight
p251
V1.2
p252
ssVwallNumber0
p253
(dp254
Vwidth
p255
g102
sVxPos
p256
V-1.5
p257
sVyPos
p258
g102
sVheight
p259
V0.05
p260
ssVwallNumber1
p261
(dp262
Vwidth
p263
g102
sVxPos
p264
V-1.5
p265
sVyPos
p266
V-1
p267
sVheight
p268
V0.05
p269
sssVnumOfSquadLeaders
p270
I0
sVcollectables
p271
(dp272
VcollectableNumber1
p273
(dp274
VxPos
p275
g102
sVspriteNum
p276
g114
sVyPos
p277
V-0.5
p278
sVlayer
p279
g102
sVcolorNum
p280
g114
sVvisible
p281
VTrue
p282
sVid
p283
V26
p284
ssVcollectableNumber0
p285
(dp286
VxPos
p287
V-1
p288
sVspriteNum
p289
g92
sVyPos
p290
V-0.5
p291
sVlayer
p292
g92
sVcolorNum
p293
g92
sVvisible
p294
VFalse
p295
sVid
p296
V25
p297
ssVcollectableNumber3
p298
(dp299
VxPos
p300
g102
sVspriteNum
p301
g150
sVyPos
p302
V1.5
p303
sVlayer
p304
g92
sVcolorNum
p305
g150
sVvisible
p306
VFalse
p307
sVid
p308
V28
p309
ssVcollectableNumber2
p310
(dp311
VxPos
p312
V-2
p313
sVspriteNum
p314
g102
sVyPos
p315
V1.5
p316
sVlayer
p317
g92
sVcolorNum
p318
g102
sVvisible
p319
VFalse
p320
sVid
p321
V27
p322
ssVcollectableNumber4
p323
(dp324
VxPos
p325
V-1
p326
sVspriteNum
p327
V4
p328
sVyPos
p329
V1.5
p330
sVlayer
p331
g92
sVcolorNum
p332
g328
sVvisible
p333
VFalse
p334
sVid
p335
V29
p336
sssVnumOfWaypoints
p337
I0
sVnumOfLeapfrogs
p338
I0
sVnumOfCollectables
p339
I5
s.