(dp0
VnumOfWalls
p1
I24
sVwaypoints
p2
(dp3
sVsquadLeaders
p4
(dp5
sVlidarLights
p6
(dp7
VlightNumber11
p8
(dp9
VxPos
p10
V0.0499245
p11
sVyPos
p12
V0.975
p13
ssVlightNumber10
p14
(dp15
VxPos
p16
V0.4429448
p17
sVyPos
p18
V0.975
p19
ssVlightNumber12
p20
(dp21
VxPos
p22
V-0.2854089
p23
sVyPos
p24
V0.975
p25
ssVlightNumber9
p26
(dp27
VxPos
p28
V1.475
p29
sVyPos
p30
V0.7600825
p31
ssVlightNumber8
p32
(dp33
VxPos
p34
V0.9322399
p35
sVyPos
p36
V0.02500001
p37
ssVlightNumber1
p38
(dp39
VxPos
p40
V0.1362041
p41
sVyPos
p42
V0.975
p43
ssVlightNumber0
p44
(dp45
VxPos
p46
V1.475
p47
sVyPos
p48
V1.611492
p49
ssVlightNumber3
p50
(dp51
VxPos
p52
V-2.360493
p53
sVyPos
p54
V1.975
p55
ssVlightNumber2
p56
(dp57
VxPos
p58
V-0.1823354
p59
sVyPos
p60
V0.975
p61
ssVlightNumber5
p62
(dp63
VxPos
p64
V-1.475
p65
sVyPos
p66
V-0.8280957
p67
ssVlightNumber4
p68
(dp69
VxPos
p70
V-1.475
p71
sVyPos
p72
V0.3709541
p73
ssVlightNumber7
p74
(dp75
VxPos
p76
V0.2316729
p77
sVyPos
p78
V0.02499998
p79
ssVlightNumber6
p80
(dp81
VxPos
p82
V-0.2867108
p83
sVyPos
p84
V-0.975
p85
sssVleapfrogs
p86
(dp87
sVglobalData
p88
(dp89
VidCounter
p90
V75
p91
ssVnumOfLidarLights
p92
I13
sVplayer
p93
(dp94
VisHolding
p95
VFalse
p96
sVxPos
p97
V0
p98
sVheldObjID
p99
Vnothing
p100
sVyPos
p101
V0.5
p102
ssVwalls
p103
(dp104
VwallNumber21
p105
(dp106
Vwidth
p107
V7
p108
sVxPos
p109
g98
sVyPos
p110
V-2
p111
sVheight
p112
V0.05
p113
ssVwallNumber20
p114
(dp115
Vwidth
p116
g108
sVxPos
p117
g98
sVyPos
p118
V3
p119
sVheight
p120
V0.05
p121
ssVwallNumber23
p122
(dp123
Vwidth
p124
V0.05
p125
sVxPos
p126
V3.5
p127
sVyPos
p128
V0.5
p129
sVheight
p130
V5
p131
ssVwallNumber22
p132
(dp133
Vwidth
p134
V0.05
p135
sVxPos
p136
V-3.5
p137
sVyPos
p138
V0.5
p139
sVheight
p140
g131
ssVwallNumber10
p141
(dp142
Vwidth
p143
V1
p144
sVxPos
p145
V-2
p146
sVyPos
p147
V2
p148
sVheight
p149
V0.05
p150
ssVwallNumber11
p151
(dp152
Vwidth
p153
g144
sVxPos
p154
V-2
p155
sVyPos
p156
V-1
p157
sVheight
p158
V0.05
p159
ssVwallNumber12
p160
(dp161
Vwidth
p162
V0.05
p163
sVxPos
p164
V-2.5
p165
sVyPos
p166
V0.5
p167
sVheight
p168
g119
ssVwallNumber13
p169
(dp170
Vwidth
p171
V0.05
p172
sVxPos
p173
V-1.5
p174
sVyPos
p175
V0.2
p176
sVheight
p177
V2.4
p178
ssVwallNumber14
p179
(dp180
Vwidth
p181
V0.05
p182
sVxPos
p183
V-1.5
p184
sVyPos
p185
g148
sVheight
p186
g98
ssVwallNumber15
p187
(dp188
Vwidth
p189
g144
sVxPos
p190
g98
sVyPos
p191
g148
sVheight
p192
V0.05
p193
ssVwallNumber16
p194
(dp195
Vwidth
p196
g144
sVxPos
p197
g98
sVyPos
p198
g144
sVheight
p199
V0.05
p200
ssVwallNumber17
p201
(dp202
Vwidth
p203
V0.05
p204
sVxPos
p205
V-0.5
p206
sVyPos
p207
V1.5
p208
sVheight
p209
g144
ssVwallNumber18
p210
(dp211
Vwidth
p212
V0.05
p213
sVxPos
p214
V0.5
p215
sVyPos
p216
V1.1
p217
sVheight
p218
V0.2
p219
ssVwallNumber19
p220
(dp221
Vwidth
p222
V0.05
p223
sVxPos
p224
V0.5
p225
sVyPos
p226
V1.9
p227
sVheight
p228
V0.2
p229
ssVwallNumber8
p230
(dp231
Vwidth
p232
V0.05
p233
sVxPos
p234
V1.5
p235
sVyPos
p236
V1.3
p237
sVheight
p238
V1.4
p239
ssVwallNumber9
p240
(dp241
Vwidth
p242
V0.05
p243
sVxPos
p244
V2.5
p245
sVyPos
p246
g144
sVheight
p247
g148
ssVwallNumber6
p248
(dp249
Vwidth
p250
g144
sVxPos
p251
g148
sVyPos
p252
g98
sVheight
p253
V0.05
p254
ssVwallNumber7
p255
(dp256
Vwidth
p257
V0.05
p258
sVxPos
p259
V1.5
p260
sVyPos
p261
g98
sVheight
p262
g98
ssVwallNumber4
p263
(dp264
Vwidth
p265
V0.05
p266
sVxPos
p267
V2.5
p268
sVyPos
p269
V-0.5
p270
sVheight
p271
g144
ssVwallNumber5
p272
(dp273
Vwidth
p274
g144
sVxPos
p275
g148
sVyPos
p276
g148
sVheight
p277
V0.05
p278
ssVwallNumber2
p279
(dp280
Vwidth
p281
g119
sVxPos
p282
g144
sVyPos
p283
V-1
p284
sVheight
p285
V0.05
p286
ssVwallNumber3
p287
(dp288
Vwidth
p289
V0.05
p290
sVxPos
p291
V-0.5
p292
sVyPos
p293
V-0.5
p294
sVheight
p295
g144
ssVwallNumber0
p296
(dp297
Vwidth
p298
g98
sVxPos
p299
V-0.5
p300
sVyPos
p301
g98
sVheight
p302
V0.05
p303
ssVwallNumber1
p304
(dp305
Vwidth
p306
V2.4
p307
sVxPos
p308
V1.3
p309
sVyPos
p310
g98
sVheight
p311
V0.05
p312
sssVnumOfSquadLeaders
p313
I0
sVcollectables
p314
(dp315
VcollectableNumber1
p316
(dp317
VxPos
p318
g144
sVspriteNum
p319
g144
sVyPos
p320
V-0.5
p321
sVlayer
p322
g98
sVcolorNum
p323
g144
sVvisible
p324
VFalse
p325
sVid
p326
V71
p327
ssVcollectableNumber0
p328
(dp329
VxPos
p330
g148
sVspriteNum
p331
g98
sVyPos
p332
V0.5
p333
sVlayer
p334
g98
sVcolorNum
p335
g98
sVvisible
p336
VFalse
p337
sVid
p338
V70
p339
ssVcollectableNumber3
p340
(dp341
VxPos
p342
V-2
p343
sVspriteNum
p344
g119
sVyPos
p345
V-0.5
p346
sVlayer
p347
g98
sVcolorNum
p348
g119
sVvisible
p349
VFalse
p350
sVid
p351
V73
p352
ssVcollectableNumber2
p353
(dp354
VxPos
p355
g98
sVspriteNum
p356
g148
sVyPos
p357
V1.5
p358
sVlayer
p359
g98
sVcolorNum
p360
g148
sVvisible
p361
VFalse
p362
sVid
p363
V72
p364
ssVcollectableNumber4
p365
(dp366
VxPos
p367
V-2
p368
sVspriteNum
p369
V4
p370
sVyPos
p371
V1.5
p372
sVlayer
p373
g98
sVcolorNum
p374
g370
sVvisible
p375
VFalse
p376
sVid
p377
V74
p378
sssVnumOfWaypoints
p379
I0
sVnumOfLeapfrogs
p380
I0
sVnumOfCollectables
p381
I5
s.