(dp0
VnumOfWalls
p1
I19
sVwaypoints
p2
(dp3
sVsquadLeaders
p4
(dp5
sVlidarLights
p6
(dp7
VlightNumber11
p8
(dp9
VxPos
p10
V-0.475
p11
sVyPos
p12
V1.290533
p13
ssVlightNumber10
p14
(dp15
VxPos
p16
V0.475
p17
sVyPos
p18
V1.009375
p19
ssVlightNumber9
p20
(dp21
VxPos
p22
V0.475
p23
sVyPos
p24
V0.5837554
p25
ssVlightNumber8
p26
(dp27
VxPos
p28
V0.475
p29
sVyPos
p30
V0.2579754
p31
ssVlightNumber1
p32
(dp33
VxPos
p34
V0.4229496
p35
sVyPos
p36
V1.975
p37
ssVlightNumber0
p38
(dp39
VxPos
p40
V0.475
p41
sVyPos
p42
V0.8579382
p43
ssVlightNumber3
p44
(dp45
VxPos
p46
V-0.4801002
p47
sVyPos
p48
V0.8
p49
ssVlightNumber2
p50
(dp51
VxPos
p52
V-0.475
p53
sVyPos
p54
V1.737418
p55
ssVlightNumber5
p56
(dp57
VxPos
p58
V-0.475
p59
sVyPos
p60
V0.07230815
p61
ssVlightNumber4
p62
(dp63
VxPos
p64
V-1.475
p65
sVyPos
p66
V0.3709541
p67
ssVlightNumber7
p68
(dp69
VxPos
p70
V0.475
p71
sVyPos
p72
V-0.4738947
p73
ssVlightNumber6
p74
(dp75
VxPos
p76
V-0.2867108
p77
sVyPos
p78
V-0.975
p79
sssVleapfrogs
p80
(dp81
sVglobalData
p82
(dp83
VidCounter
p84
V45
p85
ssVnumOfLidarLights
p86
I12
sVplayer
p87
(dp88
VisHolding
p89
VFalse
p90
sVxPos
p91
V0
p92
sVheldObjID
p93
Vnothing
p94
sVyPos
p95
V0.5
p96
ssVwalls
p97
(dp98
VwallNumber10
p99
(dp100
Vwidth
p101
V1
p102
sVxPos
p103
V-2
p104
sVyPos
p105
V2
p106
sVheight
p107
V0.05
p108
ssVwallNumber11
p109
(dp110
Vwidth
p111
g102
sVxPos
p112
V-2
p113
sVyPos
p114
V-1
p115
sVheight
p116
V0.05
p117
ssVwallNumber12
p118
(dp119
Vwidth
p120
V0.05
p121
sVxPos
p122
V-2.5
p123
sVyPos
p124
V0.5
p125
sVheight
p126
V3
p127
ssVwallNumber13
p128
(dp129
Vwidth
p130
V0.05
p131
sVxPos
p132
V-1.5
p133
sVyPos
p134
V0.2
p135
sVheight
p136
V2.4
p137
ssVwallNumber14
p138
(dp139
Vwidth
p140
V0.05
p141
sVxPos
p142
V-1.5
p143
sVyPos
p144
g106
sVheight
p145
g92
ssVwallNumber15
p146
(dp147
Vwidth
p148
V7
p149
sVxPos
p150
g92
sVyPos
p151
g127
sVheight
p152
V0.05
p153
ssVwallNumber16
p154
(dp155
Vwidth
p156
g149
sVxPos
p157
g92
sVyPos
p158
V-2
p159
sVheight
p160
V0.05
p161
ssVwallNumber17
p162
(dp163
Vwidth
p164
V0.05
p165
sVxPos
p166
V-3.5
p167
sVyPos
p168
V0.5
p169
sVheight
p170
V5
p171
ssVwallNumber18
p172
(dp173
Vwidth
p174
V0.05
p175
sVxPos
p176
V3.5
p177
sVyPos
p178
V0.5
p179
sVheight
p180
g171
ssVwallNumber8
p181
(dp182
Vwidth
p183
V0.05
p184
sVxPos
p185
V-0.5
p186
sVyPos
p187
V1.4
p188
sVheight
p189
V1.2
p190
ssVwallNumber9
p191
(dp192
Vwidth
p193
V0.05
p194
sVxPos
p195
V0.5
p196
sVyPos
p197
V0.5
p198
sVheight
p199
g127
ssVwallNumber6
p200
(dp201
Vwidth
p202
g102
sVxPos
p203
g92
sVyPos
p204
V-1
p205
sVheight
p206
V0.05
p207
ssVwallNumber7
p208
(dp209
Vwidth
p210
V0.05
p211
sVxPos
p212
V-0.5
p213
sVyPos
p214
V-0.4
p215
sVheight
p216
V1.2
p217
ssVwallNumber4
p218
(dp219
Vwidth
p220
V0.05
p221
sVxPos
p222
V2.5
p223
sVyPos
p224
V0.5
p225
sVheight
p226
g127
ssVwallNumber5
p227
(dp228
Vwidth
p229
g102
sVxPos
p230
g92
sVyPos
p231
g106
sVheight
p232
V0.05
p233
ssVwallNumber2
p234
(dp235
Vwidth
p236
V0.05
p237
sVxPos
p238
V1.5
p239
sVyPos
p240
V-0.4
p241
sVheight
p242
V1.2
p243
ssVwallNumber3
p244
(dp245
Vwidth
p246
V0.05
p247
sVxPos
p248
V1.5
p249
sVyPos
p250
V1.4
p251
sVheight
p252
V1.2
p253
ssVwallNumber0
p254
(dp255
Vwidth
p256
g102
sVxPos
p257
g106
sVyPos
p258
g106
sVheight
p259
V0.05
p260
ssVwallNumber1
p261
(dp262
Vwidth
p263
g102
sVxPos
p264
g106
sVyPos
p265
V-1
p266
sVheight
p267
V0.05
p268
sssVnumOfSquadLeaders
p269
I0
sVcollectables
p270
(dp271
VcollectableNumber1
p272
(dp273
VxPos
p274
g92
sVspriteNum
p275
g102
sVyPos
p276
V-0.5
p277
sVlayer
p278
g92
sVcolorNum
p279
g102
sVvisible
p280
VFalse
p281
sVid
p282
V41
p283
ssVcollectableNumber0
p284
(dp285
VxPos
p286
V-2
p287
sVspriteNum
p288
g92
sVyPos
p289
V1.5
p290
sVlayer
p291
g92
sVcolorNum
p292
g92
sVvisible
p293
VFalse
p294
sVid
p295
V40
p296
ssVcollectableNumber3
p297
(dp298
VxPos
p299
g106
sVspriteNum
p300
g127
sVyPos
p301
V-0.5
p302
sVlayer
p303
g92
sVcolorNum
p304
g127
sVvisible
p305
VFalse
p306
sVid
p307
V43
p308
ssVcollectableNumber2
p309
(dp310
VxPos
p311
g92
sVspriteNum
p312
g106
sVyPos
p313
V1.5
p314
sVlayer
p315
g106
sVcolorNum
p316
g106
sVvisible
p317
VTrue
p318
sVid
p319
V42
p320
ssVcollectableNumber4
p321
(dp322
VxPos
p323
g106
sVspriteNum
p324
V4
p325
sVyPos
p326
V1.5
p327
sVlayer
p328
g92
sVcolorNum
p329
g325
sVvisible
p330
VFalse
p331
sVid
p332
V44
p333
sssVnumOfWaypoints
p334
I0
sVnumOfLeapfrogs
p335
I0
sVnumOfCollectables
p336
I5
s.