(dp0
VnumOfWalls
p1
I24
sVwaypoints
p2
(dp3
sVsquadLeaders
p4
(dp5
sVlidarLights
p6
(dp7
VlightNumber298
p8
(dp9
VxPos
p10
V-0.525
p11
sVyPos
p12
V1.420734
p13
ssVlightNumber299
p14
(dp15
VxPos
p16
V-1.020908
p17
sVyPos
p18
V1.975
p19
ssVlightNumber928
p20
(dp21
VxPos
p22
V0.2621381
p23
sVyPos
p24
V2.025
p25
ssVlightNumber929
p26
(dp27
VxPos
p28
V2.040231
p29
sVyPos
p30
V1.025
p31
ssVlightNumber292
p32
(dp33
VxPos
p34
V-2.475
p35
sVyPos
p36
V1.380009
p37
ssVlightNumber293
p38
(dp39
VxPos
p40
V-2.475
p41
sVyPos
p42
V0.8387573
p43
ssVlightNumber290
p44
(dp45
VxPos
p46
V-1.397764
p47
sVyPos
p48
V1.975
p49
ssVlightNumber291
p50
(dp51
VxPos
p52
V-2.136571
p53
sVyPos
p54
V1.975
p55
ssVlightNumber296
p56
(dp57
VxPos
p58
V0.09744644
p59
sVyPos
p60
V-1.975
p61
ssVlightNumber297
p62
(dp63
VxPos
p64
V-0.525
p65
sVyPos
p66
V0.6185168
p67
ssVlightNumber294
p68
(dp69
VxPos
p70
V-2.475
p71
sVyPos
p72
V0.1497511
p73
ssVlightNumber295
p74
(dp75
VxPos
p76
V-1.902507
p77
sVyPos
p78
V-0.9750001
p79
ssVlightNumber847
p80
(dp81
VxPos
p82
V-3.475
p83
sVyPos
p84
V2.851833
p85
ssVlightNumber846
p86
(dp87
VxPos
p88
V-2.881642
p89
sVyPos
p90
V2.975
p91
ssVlightNumber845
p92
(dp93
VxPos
p94
V-2.654777
p95
sVyPos
p96
V2.975
p97
ssVlightNumber844
p98
(dp99
VxPos
p100
V-2.449486
p101
sVyPos
p102
V2.975
p103
ssVlightNumber843
p104
(dp105
VxPos
p106
V-1.754577
p107
sVyPos
p108
V2.975
p109
ssVlightNumber842
p110
(dp111
VxPos
p112
V-0.8167176
p113
sVyPos
p114
V2.025
p115
ssVlightNumber489
p116
(dp117
VxPos
p118
V-2.274171
p119
sVyPos
p120
V-0.975
p121
ssVlightNumber488
p122
(dp123
VxPos
p124
V-2.448053
p125
sVyPos
p126
V-0.975
p127
ssVlightNumber487
p128
(dp129
VxPos
p130
V-2.475
p131
sVyPos
p132
V-0.8084222
p133
ssVlightNumber486
p134
(dp135
VxPos
p136
V-2.475
p137
sVyPos
p138
V-0.5471399
p139
ssVlightNumber485
p140
(dp141
VxPos
p142
V-2.34885
p143
sVyPos
p144
V1.975
p145
ssVlightNumber484
p146
(dp147
VxPos
p148
V-0.5250002
p149
sVyPos
p150
V1.606328
p151
ssVlightNumber483
p152
(dp153
VxPos
p154
V-0.5249999
p155
sVyPos
p156
V-0.2965105
p157
ssVlightNumber482
p158
(dp159
VxPos
p160
V-1.862435
p161
sVyPos
p162
V-0.975
p163
ssVlightNumber481
p164
(dp165
VxPos
p166
V-2.106772
p167
sVyPos
p168
V-0.975
p169
ssVlightNumber480
p170
(dp171
VxPos
p172
V-2.178557
p173
sVyPos
p174
V-0.975
p175
ssVlightNumber748
p176
(dp177
VxPos
p178
V-3.475
p179
sVyPos
p180
V1.859313
p181
ssVlightNumber749
p182
(dp183
VxPos
p184
V-3.475
p185
sVyPos
p186
V0.3848377
p187
ssVlightNumber999
p188
(dp189
VxPos
p190
V1.0602
p191
sVyPos
p192
V2.975
p193
ssVlightNumber924
p194
(dp195
VxPos
p196
V-0.4421892
p197
sVyPos
p198
V2.975
p199
ssVlightNumber934
p200
(dp201
VxPos
p202
V-0.4118397
p203
sVyPos
p204
V2.975
p205
ssVlightNumber794
p206
(dp207
VxPos
p208
V-2.525
p209
sVyPos
p210
V1.555502
p211
ssVlightNumber925
p212
(dp213
VxPos
p214
V-3.448891
p215
sVyPos
p216
V2.975
p217
ssVlightNumber991
p218
(dp219
VxPos
p220
V0.4812704
p221
sVyPos
p222
V2.975
p223
ssVlightNumber990
p224
(dp225
VxPos
p226
V1.083239
p227
sVyPos
p228
V2.975
p229
ssVlightNumber993
p230
(dp231
VxPos
p232
V-3.475
p233
sVyPos
p234
V2.878876
p235
ssVlightNumber871
p236
(dp237
VxPos
p238
V-0.5073369
p239
sVyPos
p240
V2.025
p241
ssVlightNumber995
p242
(dp243
VxPos
p244
V0.525
p245
sVyPos
p246
V1.88081
p247
ssVlightNumber909
p248
(dp249
VxPos
p250
V-0.1756765
p251
sVyPos
p252
V2.025
p253
ssVlightNumber997
p254
(dp255
VxPos
p256
V1.475
p257
sVyPos
p258
V1.895713
p259
ssVlightNumber996
p260
(dp261
VxPos
p262
V1.505754
p263
sVyPos
p264
V1.2
p265
ssVlightNumber927
p266
(dp267
VxPos
p268
V-0.1212799
p269
sVyPos
p270
V2.025
p271
ssVlightNumber920
p272
(dp273
VxPos
p274
V2.352581
p275
sVyPos
p276
V2.025
p277
ssVlightNumber921
p278
(dp279
VxPos
p280
V0.8056176
p281
sVyPos
p282
V2.975
p283
ssVlightNumber740
p284
(dp285
VxPos
p286
V-3.475
p287
sVyPos
p288
V-0.1976331
p289
ssVlightNumber922
p290
(dp291
VxPos
p292
V0.1579565
p293
sVyPos
p294
V2.975
p295
ssVlightNumber741
p296
(dp297
VxPos
p298
V-3.475
p299
sVyPos
p300
V-0.4831018
p301
ssVlightNumber923
p302
(dp303
VxPos
p304
V-0.1014116
p305
sVyPos
p306
V2.975
p307
ssVlightNumber201
p308
(dp309
VxPos
p310
V0.475
p311
sVyPos
p312
V-0.6991138
p313
ssVlightNumber200
p314
(dp315
VxPos
p316
V3.475
p317
sVyPos
p318
V-1.732017
p319
ssVlightNumber203
p320
(dp321
VxPos
p322
V-0.4700064
p323
sVyPos
p324
V0.9750001
p325
ssVlightNumber202
p326
(dp327
VxPos
p328
V1.957403
p329
sVyPos
p330
V2.975
p331
ssVlightNumber205
p332
(dp333
VxPos
p334
V-2.475
p335
sVyPos
p336
V-0.65115
p337
ssVlightNumber204
p338
(dp339
VxPos
p340
V-2.475
p341
sVyPos
p342
V1.262315
p343
ssVlightNumber207
p344
(dp345
VxPos
p346
V-0.7462279
p347
sVyPos
p348
V-1.975
p349
ssVlightNumber206
p350
(dp351
VxPos
p352
V-2.094041
p353
sVyPos
p354
V-1.975
p355
ssVlightNumber209
p356
(dp357
VxPos
p358
V0.9890513
p359
sVyPos
p360
V-1.975
p361
ssVlightNumber208
p362
(dp363
VxPos
p364
V-0.05533832
p365
sVyPos
p366
V-1.975
p367
ssVlightNumber571
p368
(dp369
VxPos
p370
V0.475
p371
sVyPos
p372
V-0.0244168
p373
ssVlightNumber570
p374
(dp375
VxPos
p376
V0.475
p377
sVyPos
p378
V-0.763818
p379
ssVlightNumber577
p380
(dp381
VxPos
p382
V-0.618228
p383
sVyPos
p384
V-1.975
p385
ssVlightNumber576
p386
(dp387
VxPos
p388
V-0.6735183
p389
sVyPos
p390
V-0.975
p391
ssVlightNumber575
p392
(dp393
VxPos
p394
V-2.475
p395
sVyPos
p396
V-0.8230593
p397
ssVlightNumber574
p398
(dp399
VxPos
p400
V-2.475
p401
sVyPos
p402
V0.6656582
p403
ssVlightNumber472
p404
(dp405
VxPos
p406
V-1.923811
p407
sVyPos
p408
V-0.975
p409
ssVlightNumber473
p410
(dp411
VxPos
p412
V0.4749999
p413
sVyPos
p414
V-0.4576054
p415
ssVlightNumber470
p416
(dp417
VxPos
p418
V-2.12689
p419
sVyPos
p420
V-0.975
p421
ssVlightNumber471
p422
(dp423
VxPos
p424
V-2.064101
p425
sVyPos
p426
V-0.975
p427
ssVlightNumber476
p428
(dp429
VxPos
p430
V-2.475
p431
sVyPos
p432
V-0.3079678
p433
ssVlightNumber477
p434
(dp435
VxPos
p436
V-2.475
p437
sVyPos
p438
V-0.7350565
p439
ssVlightNumber474
p440
(dp441
VxPos
p442
V-0.5250002
p443
sVyPos
p444
V0.7988624
p445
ssVlightNumber475
p446
(dp447
VxPos
p448
V-1.794435
p449
sVyPos
p450
V1.975
p451
ssVlightNumber775
p452
(dp453
VxPos
p454
V-2.525
p455
sVyPos
p456
V1.07253
p457
ssVlightNumber774
p458
(dp459
VxPos
p460
V-2.525
p461
sVyPos
p462
V0.7200094
p463
ssVlightNumber478
p464
(dp465
VxPos
p466
V-2.475
p467
sVyPos
p468
V-0.9477137
p469
ssVlightNumber479
p470
(dp471
VxPos
p472
V-2.254266
p473
sVyPos
p474
V-0.975
p475
ssVlightNumber771
p476
(dp477
VxPos
p478
V-3.475
p479
sVyPos
p480
V0.05861962
p481
ssVlightNumber770
p482
(dp483
VxPos
p484
V-3.475
p485
sVyPos
p486
V0.5500397
p487
ssVlightNumber773
p488
(dp489
VxPos
p490
V-2.525
p491
sVyPos
p492
V0.2194858
p493
ssVlightNumber772
p494
(dp495
VxPos
p496
V-2.903241
p497
sVyPos
p498
V-1.975
p499
ssVlightNumber1003
p500
(dp501
VxPos
p502
V0.4066117
p503
sVyPos
p504
V1.025
p505
ssVlightNumber1002
p506
(dp507
VxPos
p508
V0.5249999
p509
sVyPos
p510
V1.824184
p511
ssVlightNumber1001
p512
(dp513
VxPos
p514
V0.525
p515
sVyPos
p516
V1.939471
p517
ssVlightNumber1000
p518
(dp519
VxPos
p520
V0.3419064
p521
sVyPos
p522
V2.975
p523
ssVlightNumber1007
p524
(dp525
VxPos
p526
V2.166417
p527
sVyPos
p528
V2.975
p529
ssVlightNumber841
p530
(dp531
VxPos
p532
V-2.333103
p533
sVyPos
p534
V2.025
p535
ssVlightNumber1005
p536
(dp537
VxPos
p538
V1.475
p539
sVyPos
p540
V1.136712
p541
ssVlightNumber1004
p542
(dp543
VxPos
p544
V1.245336
p545
sVyPos
p546
V0.0250001
p547
ssVlightNumber1009
p548
(dp549
VxPos
p550
V0.4904121
p551
sVyPos
p552
V1.8
p553
ssVlightNumber840
p554
(dp555
VxPos
p556
V-2.965906
p557
sVyPos
p558
V-1.975
p559
ssVlightNumber9
p560
(dp561
VxPos
p562
V0.4429448
p563
sVyPos
p564
V0.975
p565
ssVlightNumber8
p566
(dp567
VxPos
p568
V3.475
p569
sVyPos
p570
V1.112737
p571
ssVlightNumber911
p572
(dp573
VxPos
p574
V1.09703
p575
sVyPos
p576
V2.975
p577
ssVlightNumber1
p578
(dp579
VxPos
p580
V0.1362041
p581
sVyPos
p582
V0.975
p583
ssVlightNumber0
p584
(dp585
VxPos
p586
V1.957392
p587
sVyPos
p588
V1.975
p589
ssVlightNumber3
p590
(dp591
VxPos
p592
V-0.475
p593
sVyPos
p594
V0.796813
p595
ssVlightNumber2
p596
(dp597
VxPos
p598
V-0.1823354
p599
sVyPos
p600
V0.975
p601
ssVlightNumber5
p602
(dp603
VxPos
p604
V-0.475
p605
sVyPos
p606
V0.07230815
p607
ssVlightNumber4
p608
(dp609
VxPos
p610
V-0.475
p611
sVyPos
p612
V0.4584428
p613
ssVlightNumber7
p614
(dp615
VxPos
p616
V0.475
p617
sVyPos
p618
V-0.4738947
p619
ssVlightNumber6
p620
(dp621
VxPos
p622
V-0.481091
p623
sVyPos
p624
V-1.975
p625
ssVlightNumber339
p626
(dp627
VxPos
p628
V-1.070176
p629
sVyPos
p630
V1.975
p631
ssVlightNumber338
p632
(dp633
VxPos
p634
V-0.525
p635
sVyPos
p636
V1.080176
p637
ssVlightNumber335
p638
(dp639
VxPos
p640
V0.4422543
p641
sVyPos
p642
V-1.975
p643
ssVlightNumber334
p644
(dp645
VxPos
p646
V-1.23587
p647
sVyPos
p648
V-0.975
p649
ssVlightNumber337
p650
(dp651
VxPos
p652
V-0.525
p653
sVyPos
p654
V0.5405078
p655
ssVlightNumber336
p656
(dp657
VxPos
p658
V-0.525
p659
sVyPos
p660
V0.1900249
p661
ssVlightNumber331
p662
(dp663
VxPos
p664
V-2.475
p665
sVyPos
p666
V1.134009
p667
ssVlightNumber330
p668
(dp669
VxPos
p670
V-1.962222
p671
sVyPos
p672
V1.975
p673
ssVlightNumber333
p674
(dp675
VxPos
p676
V-2.420691
p677
sVyPos
p678
V-0.975
p679
ssVlightNumber332
p680
(dp681
VxPos
p682
V-2.475
p683
sVyPos
p684
V0.23206
p685
ssVlightNumber1018
p686
(dp687
VxPos
p688
V0.6392797
p689
sVyPos
p690
V2.975
p691
ssVlightNumber849
p692
(dp693
VxPos
p694
V-3.475
p695
sVyPos
p696
V0.888824
p697
ssVlightNumber508
p698
(dp699
VxPos
p700
V-2.371619
p701
sVyPos
p702
V-0.975
p703
ssVlightNumber509
p704
(dp705
VxPos
p706
V-2.280993
p707
sVyPos
p708
V-0.975
p709
ssVlightNumber506
p710
(dp711
VxPos
p712
V-2.475
p713
sVyPos
p714
V-0.7456723
p715
ssVlightNumber507
p716
(dp717
VxPos
p718
V-2.475
p719
sVyPos
p720
V-0.896241
p721
ssVlightNumber504
p722
(dp723
VxPos
p724
V-1.546829
p725
sVyPos
p726
V1.975
p727
ssVlightNumber505
p728
(dp729
VxPos
p730
V-2.475
p731
sVyPos
p732
V-0.3586679
p733
ssVlightNumber502
p734
(dp735
VxPos
p736
V0.4749999
p737
sVyPos
p738
V-0.7747992
p739
ssVlightNumber503
p740
(dp741
VxPos
p742
V-0.5250001
p743
sVyPos
p744
V0.5303334
p745
ssVlightNumber500
p746
(dp747
VxPos
p748
V-2.213913
p749
sVyPos
p750
V-0.975
p751
ssVlightNumber501
p752
(dp753
VxPos
p754
V-2.100276
p755
sVyPos
p756
V-0.975
p757
ssVlightNumber119
p758
(dp759
VxPos
p760
V-3.475
p761
sVyPos
p762
V-1.736958
p763
ssVlightNumber118
p764
(dp765
VxPos
p766
V-1.278794
p767
sVyPos
p768
V-1.025
p769
ssVlightNumber661
p770
(dp771
VxPos
p772
V-2.05736
p773
sVyPos
p774
V-1.025
p775
ssVlightNumber111
p776
(dp777
VxPos
p778
V-1.13489
p779
sVyPos
p780
V-1.975
p781
ssVlightNumber110
p782
(dp783
VxPos
p784
V-1.914754
p785
sVyPos
p786
V-1.975
p787
ssVlightNumber113
p788
(dp789
VxPos
p790
V0.6100526
p791
sVyPos
p792
V-1.975
p793
ssVlightNumber112
p794
(dp795
VxPos
p796
V-0.5733444
p797
sVyPos
p798
V-1.975
p799
ssVlightNumber115
p800
(dp801
VxPos
p802
V-0.8999174
p803
sVyPos
p804
V-1.025
p805
ssVlightNumber114
p806
(dp807
VxPos
p808
V0.4750001
p809
sVyPos
p810
V-0.8978855
p811
ssVlightNumber117
p812
(dp813
VxPos
p814
V-1.082395
p815
sVyPos
p816
V-1.025
p817
ssVlightNumber116
p818
(dp819
VxPos
p820
V-0.9988879
p821
sVyPos
p822
V-1.025
p823
ssVlightNumber99
p824
(dp825
VxPos
p826
V-1.77073
p827
sVyPos
p828
V-1.025
p829
ssVlightNumber98
p830
(dp831
VxPos
p832
V-0.8659814
p833
sVyPos
p834
V-1.025
p835
ssVlightNumber752
p836
(dp837
VxPos
p838
V-3.475
p839
sVyPos
p840
V-1.349082
p841
ssVlightNumber91
p842
(dp843
VxPos
p844
V-1.139636
p845
sVyPos
p846
V-1.975
p847
ssVlightNumber90
p848
(dp849
VxPos
p850
V-2.794624
p851
sVyPos
p852
V-1.975
p853
ssVlightNumber93
p854
(dp855
VxPos
p856
V0.1072742
p857
sVyPos
p858
V-1.975
p859
ssVlightNumber92
p860
(dp861
VxPos
p862
V-0.558631
p863
sVyPos
p864
V-1.975
p865
ssVlightNumber95
p866
(dp867
VxPos
p868
V0.475
p869
sVyPos
p870
V-0.559092
p871
ssVlightNumber94
p872
(dp873
VxPos
p874
V3.475
p875
sVyPos
p876
V-1.936351
p877
ssVlightNumber97
p878
(dp879
VxPos
p880
V-0.7530462
p881
sVyPos
p882
V-1.025
p883
ssVlightNumber96
p884
(dp885
VxPos
p886
V-0.6617195
p887
sVyPos
p888
V-1.025
p889
ssVlightNumber660
p890
(dp891
VxPos
p892
V-1.678719
p893
sVyPos
p894
V-1.025
p895
ssVlightNumber944
p896
(dp897
VxPos
p898
V-1.150213
p899
sVyPos
p900
V2.975
p901
ssVlightNumber809
p902
(dp903
VxPos
p904
V-3.475
p905
sVyPos
p906
V1.821626
p907
ssVlightNumber808
p908
(dp909
VxPos
p910
V-3.475
p911
sVyPos
p912
V2.112212
p913
ssVlightNumber803
p914
(dp915
VxPos
p916
V-2.525
p917
sVyPos
p918
V1.62707
p919
ssVlightNumber802
p920
(dp921
VxPos
p922
V-2.525
p923
sVyPos
p924
V1.023984
p925
ssVlightNumber801
p926
(dp927
VxPos
p928
V-3.318434
p929
sVyPos
p930
V-1.975
p931
ssVlightNumber800
p932
(dp933
VxPos
p934
V-3.475
p935
sVyPos
p936
V1.171853
p937
ssVlightNumber807
p938
(dp939
VxPos
p940
V-3.475
p941
sVyPos
p942
V2.58098
p943
ssVlightNumber806
p944
(dp945
VxPos
p946
V-2.99244
p947
sVyPos
p948
V2.975
p949
ssVlightNumber805
p950
(dp951
VxPos
p952
V-2.162547
p953
sVyPos
p954
V2.975
p955
ssVlightNumber804
p956
(dp957
VxPos
p958
V-2.525
p959
sVyPos
p960
V1.974255
p961
ssVlightNumber605
p962
(dp963
VxPos
p964
V-1.278008
p965
sVyPos
p966
V-1.975
p967
ssVlightNumber604
p968
(dp969
VxPos
p970
V-3.475
p971
sVyPos
p972
V-1.07536
p973
ssVlightNumber607
p974
(dp975
VxPos
p976
V-0.1175237
p977
sVyPos
p978
V-1.975
p979
ssVlightNumber606
p980
(dp981
VxPos
p982
V-0.5126778
p983
sVyPos
p984
V-1.975
p985
ssVlightNumber601
p986
(dp987
VxPos
p988
V1.671773
p989
sVyPos
p990
V2.975
p991
ssVlightNumber600
p992
(dp993
VxPos
p994
V0.475
p995
sVyPos
p996
V-0.7687322
p997
ssVlightNumber603
p998
(dp999
VxPos
p1000
V-0.5572811
p1001
sVyPos
p1002
V-1.025
p1003
ssVlightNumber602
p1004
(dp1005
VxPos
p1006
V-0.475
p1007
sVyPos
p1008
V-0.3036719
p1009
ssVlightNumber963
p1010
(dp1011
VxPos
p1012
V-0.5356312
p1013
sVyPos
p1014
V2.975
p1015
ssVlightNumber609
p1016
(dp1017
VxPos
p1018
V3.475
p1019
sVyPos
p1020
V-1.398803
p1021
ssVlightNumber608
p1022
(dp1023
VxPos
p1024
V0.4510105
p1025
sVyPos
p1026
V-1.975
p1027
ssVlightNumber894
p1028
(dp1029
VxPos
p1030
V-1.113718
p1031
sVyPos
p1032
V2.975
p1033
ssVlightNumber895
p1034
(dp1035
VxPos
p1036
V-1.487264
p1037
sVyPos
p1038
V2.975
p1039
ssVlightNumber896
p1040
(dp1041
VxPos
p1042
V-3.475
p1043
sVyPos
p1044
V2.582981
p1045
ssVlightNumber897
p1046
(dp1047
VxPos
p1048
V-1.640757
p1049
sVyPos
p1050
V2.025
p1051
ssVlightNumber890
p1052
(dp1053
VxPos
p1054
V-0.5076615
p1055
sVyPos
p1056
V2.025
p1057
ssVlightNumber891
p1058
(dp1059
VxPos
p1060
V3.475
p1061
sVyPos
p1062
V2.188559
p1063
ssVlightNumber892
p1064
(dp1065
VxPos
p1066
V-0.4492888
p1067
sVyPos
p1068
V2.975
p1069
ssVlightNumber893
p1070
(dp1071
VxPos
p1072
V-0.8863273
p1073
sVyPos
p1074
V2.975
p1075
ssVlightNumber898
p1076
(dp1077
VxPos
p1078
V-1.027792
p1079
sVyPos
p1080
V2.025
p1081
ssVlightNumber899
p1082
(dp1083
VxPos
p1084
V-0.6223546
p1085
sVyPos
p1086
V2.025
p1087
ssVlightNumber956
p1088
(dp1089
VxPos
p1090
V0.3258796
p1091
sVyPos
p1092
V2.025
p1093
ssVlightNumber729
p1094
(dp1095
VxPos
p1096
V-3.475
p1097
sVyPos
p1098
V0.1130452
p1099
ssVlightNumber977
p1100
(dp1101
VxPos
p1102
V1.563518
p1103
sVyPos
p1104
V0.02499986
p1105
ssVlightNumber976
p1106
(dp1107
VxPos
p1108
V0.4666004
p1109
sVyPos
p1110
V2.025
p1111
ssVlightNumber975
p1112
(dp1113
VxPos
p1114
V0.365627
p1115
sVyPos
p1116
V2.025
p1117
ssVlightNumber974
p1118
(dp1119
VxPos
p1120
V-0.5588335
p1121
sVyPos
p1122
V2.025
p1123
ssVlightNumber973
p1124
(dp1125
VxPos
p1126
V-0.9237523
p1127
sVyPos
p1128
V2.975
p1129
ssVlightNumber972
p1130
(dp1131
VxPos
p1132
V0.1323996
p1133
sVyPos
p1134
V2.975
p1135
ssVlightNumber878
p1136
(dp1137
VxPos
p1138
V-1.957499
p1139
sVyPos
p1140
V2.025
p1141
ssVlightNumber879
p1142
(dp1143
VxPos
p1144
V-1.492594
p1145
sVyPos
p1146
V2.025
p1147
ssVlightNumber876
p1148
(dp1149
VxPos
p1150
V-2.612405
p1151
sVyPos
p1152
V2.975
p1153
ssVlightNumber877
p1154
(dp1155
VxPos
p1156
V-3.475
p1157
sVyPos
p1158
V2.023665
p1159
ssVlightNumber874
p1160
(dp1161
VxPos
p1162
V-1.644046
p1163
sVyPos
p1164
V2.975
p1165
ssVlightNumber875
p1166
(dp1167
VxPos
p1168
V-1.874044
p1169
sVyPos
p1170
V2.975
p1171
ssVlightNumber872
p1172
(dp1173
VxPos
p1174
V-0.03037894
p1175
sVyPos
p1176
V2.975
p1177
ssVlightNumber873
p1178
(dp1179
VxPos
p1180
V-1.386665
p1181
sVyPos
p1182
V2.975
p1183
ssVlightNumber870
p1184
(dp1185
VxPos
p1186
V-1.489467
p1187
sVyPos
p1188
V2.025
p1189
ssVlightNumber613
p1190
(dp1191
VxPos
p1192
V-1.207803
p1193
sVyPos
p1194
V-1.025
p1195
ssVlightNumber992
p1196
(dp1197
VxPos
p1198
V-0.2158321
p1199
sVyPos
p1200
V2.975
p1201
ssVlightNumber965
p1202
(dp1203
VxPos
p1204
V0.2741458
p1205
sVyPos
p1206
V2.025
p1207
ssVlightNumber994
p1208
(dp1209
VxPos
p1210
V0.4934234
p1211
sVyPos
p1212
V2.025
p1213
ssVlightNumber731
p1214
(dp1215
VxPos
p1216
V-3.475
p1217
sVyPos
p1218
V-0.7233783
p1219
ssVlightNumber730
p1220
(dp1221
VxPos
p1222
V-3.475
p1223
sVyPos
p1224
V-0.4425253
p1225
ssVlightNumber733
p1226
(dp1227
VxPos
p1228
V-3.032012
p1229
sVyPos
p1230
V-1.975
p1231
ssVlightNumber732
p1232
(dp1233
VxPos
p1234
V-3.475
p1235
sVyPos
p1236
V-1.16363
p1237
ssVlightNumber735
p1238
(dp1239
VxPos
p1240
V-2.525
p1241
sVyPos
p1242
V-0.6116337
p1243
ssVlightNumber734
p1244
(dp1245
VxPos
p1246
V-1.933439
p1247
sVyPos
p1248
V-1.975
p1249
ssVlightNumber737
p1250
(dp1251
VxPos
p1252
V-2.525
p1253
sVyPos
p1254
V0.3430465
p1255
ssVlightNumber736
p1256
(dp1257
VxPos
p1258
V-2.525
p1259
sVyPos
p1260
V-0.2558919
p1261
ssVlightNumber739
p1262
(dp1263
VxPos
p1264
V-3.475
p1265
sVyPos
p1266
V0.2090902
p1267
ssVlightNumber738
p1268
(dp1269
VxPos
p1270
V-3.23932
p1271
sVyPos
p1272
V2.975
p1273
ssVlightNumber919
p1274
(dp1275
VxPos
p1276
V0.2929198
p1277
sVyPos
p1278
V2.025
p1279
ssVlightNumber782
p1280
(dp1281
VxPos
p1282
V-2.342385
p1283
sVyPos
p1284
V-1.975
p1285
ssVlightNumber783
p1286
(dp1287
VxPos
p1288
V-2.525
p1289
sVyPos
p1290
V0.7284522
p1291
ssVlightNumber278
p1292
(dp1293
VxPos
p1294
V-0.525
p1295
sVyPos
p1296
V0.3632384
p1297
ssVlightNumber279
p1298
(dp1299
VxPos
p1300
V-0.525
p1301
sVyPos
p1302
V1.14181
p1303
ssVlightNumber373
p1304
(dp1305
VxPos
p1306
V-0.5131336
p1307
sVyPos
p1308
V-1.975
p1309
ssVlightNumber372
p1310
(dp1311
VxPos
p1312
V-0.830389
p1313
sVyPos
p1314
V-0.975
p1315
ssVlightNumber375
p1316
(dp1317
VxPos
p1318
V0.4749999
p1319
sVyPos
p1320
V-0.9194919
p1321
ssVlightNumber374
p1322
(dp1323
VxPos
p1324
V0.5222972
p1325
sVyPos
p1326
V-1.975
p1327
ssVlightNumber377
p1328
(dp1329
VxPos
p1330
V1.983129
p1331
sVyPos
p1332
V2.975
p1333
ssVlightNumber376
p1334
(dp1335
VxPos
p1336
V0.475
p1337
sVyPos
p1338
V-0.3377126
p1339
ssVlightNumber270
p1340
(dp1341
VxPos
p1342
V-0.525
p1343
sVyPos
p1344
V1.833759
p1345
ssVlightNumber271
p1346
(dp1347
VxPos
p1348
V-1.696349
p1349
sVyPos
p1350
V1.975
p1351
ssVlightNumber272
p1352
(dp1353
VxPos
p1354
V-2.475
p1355
sVyPos
p1356
V1.303369
p1357
ssVlightNumber273
p1358
(dp1359
VxPos
p1360
V-2.475
p1361
sVyPos
p1362
V0.4874444
p1363
ssVlightNumber274
p1364
(dp1365
VxPos
p1366
V-2.475
p1367
sVyPos
p1368
V-0.1054528
p1369
ssVlightNumber275
p1370
(dp1371
VxPos
p1372
V-2.250877
p1373
sVyPos
p1374
V-0.9750001
p1375
ssVlightNumber276
p1376
(dp1377
VxPos
p1378
V-1.324031
p1379
sVyPos
p1380
V-0.975
p1381
ssVlightNumber277
p1382
(dp1383
VxPos
p1384
V1.018114
p1385
sVyPos
p1386
V-1.975
p1387
ssVlightNumber542
p1388
(dp1389
VxPos
p1390
V-0.5249999
p1391
sVyPos
p1392
V0.06449544
p1393
ssVlightNumber543
p1394
(dp1395
VxPos
p1396
V-0.9176348
p1397
sVyPos
p1398
V1.975
p1399
ssVlightNumber540
p1400
(dp1401
VxPos
p1402
V-1.294276
p1403
sVyPos
p1404
V-0.975
p1405
ssVlightNumber541
p1406
(dp1407
VxPos
p1408
V0.475
p1409
sVyPos
p1410
V-0.6329359
p1411
ssVlightNumber429
p1412
(dp1413
VxPos
p1414
V-2.475
p1415
sVyPos
p1416
V-0.8892397
p1417
ssVlightNumber428
p1418
(dp1419
VxPos
p1420
V-2.475
p1421
sVyPos
p1422
V-0.05014437
p1423
ssVlightNumber544
p1424
(dp1425
VxPos
p1426
V-2.475
p1427
sVyPos
p1428
V1.354835
p1429
ssVlightNumber545
p1430
(dp1431
VxPos
p1432
V-2.475
p1433
sVyPos
p1434
V-0.2444123
p1435
ssVlightNumber425
p1436
(dp1437
VxPos
p1438
V-0.525
p1439
sVyPos
p1440
V-0.38877
p1441
ssVlightNumber424
p1442
(dp1443
VxPos
p1444
V0.475
p1445
sVyPos
p1446
V-0.9898161
p1447
ssVlightNumber427
p1448
(dp1449
VxPos
p1450
V-2.189835
p1451
sVyPos
p1452
V1.975
p1453
ssVlightNumber426
p1454
(dp1455
VxPos
p1456
V-0.5249999
p1457
sVyPos
p1458
V1.24047
p1459
ssVlightNumber421
p1460
(dp1461
VxPos
p1462
V-1.204263
p1463
sVyPos
p1464
V-0.975
p1465
ssVlightNumber420
p1466
(dp1467
VxPos
p1468
V-1.324589
p1469
sVyPos
p1470
V-0.975
p1471
ssVlightNumber423
p1472
(dp1473
VxPos
p1474
V-1.090279
p1475
sVyPos
p1476
V-0.975
p1477
ssVlightNumber422
p1478
(dp1479
VxPos
p1480
V-1.160972
p1481
sVyPos
p1482
V-0.975
p1483
ssVlightNumber371
p1484
(dp1485
VxPos
p1486
V-2.142653
p1487
sVyPos
p1488
V-0.975
p1489
ssVlightNumber370
p1490
(dp1491
VxPos
p1492
V-2.475
p1493
sVyPos
p1494
V0.2529349
p1495
ssVlightNumber598
p1496
(dp1497
VxPos
p1498
V0.5811732
p1499
sVyPos
p1500
V-1.975
p1501
ssVlightNumber971
p1502
(dp1503
VxPos
p1504
V0.693643
p1505
sVyPos
p1506
V2.975
p1507
ssVlightNumber379
p1508
(dp1509
VxPos
p1510
V-2.475
p1511
sVyPos
p1512
V1.713544
p1513
ssVlightNumber378
p1514
(dp1515
VxPos
p1516
V-0.475
p1517
sVyPos
p1518
V0.7757132
p1519
ssVlightNumber79
p1520
(dp1521
VxPos
p1522
V-0.7249713
p1523
sVyPos
p1524
V-1.025
p1525
ssVlightNumber78
p1526
(dp1527
VxPos
p1528
V-1.970221
p1529
sVyPos
p1530
V1.975
p1531
ssVlightNumber1014
p1532
(dp1533
VxPos
p1534
V1.368962
p1535
sVyPos
p1536
V0.02499998
p1537
ssVlightNumber672
p1538
(dp1539
VxPos
p1540
V-3.475
p1541
sVyPos
p1542
V-1.278329
p1543
ssVlightNumber73
p1544
(dp1545
VxPos
p1546
V0.03986152
p1547
sVyPos
p1548
V-1.975
p1549
ssVlightNumber72
p1550
(dp1551
VxPos
p1552
V-0.3585604
p1553
sVyPos
p1554
V-1.975
p1555
ssVlightNumber71
p1556
(dp1557
VxPos
p1558
V-0.9281628
p1559
sVyPos
p1560
V-1.975
p1561
ssVlightNumber70
p1562
(dp1563
VxPos
p1564
V-3.475
p1565
sVyPos
p1566
V-1.462729
p1567
ssVlightNumber77
p1568
(dp1569
VxPos
p1570
V0.07543018
p1571
sVyPos
p1572
V0.9749999
p1573
ssVlightNumber76
p1574
(dp1575
VxPos
p1576
V0.475
p1577
sVyPos
p1578
V-0.5536129
p1579
ssVlightNumber75
p1580
(dp1581
VxPos
p1582
V2.265588
p1583
sVyPos
p1584
V-1.025
p1585
ssVlightNumber74
p1586
(dp1587
VxPos
p1588
V0.8576886
p1589
sVyPos
p1590
V-1.975
p1591
ssVlightNumber649
p1592
(dp1593
VxPos
p1594
V-0.7601685
p1595
sVyPos
p1596
V-1.025
p1597
ssVlightNumber648
p1598
(dp1599
VxPos
p1600
V3.475
p1601
sVyPos
p1602
V-1.187565
p1603
ssVlightNumber695
p1604
(dp1605
VxPos
p1606
V-2.505167
p1607
sVyPos
p1608
V-1.975
p1609
ssVlightNumber641
p1610
(dp1611
VxPos
p1612
V-1.198502
p1613
sVyPos
p1614
V-1.025
p1615
ssVlightNumber640
p1616
(dp1617
VxPos
p1618
V-0.8214374
p1619
sVyPos
p1620
V-1.025
p1621
ssVlightNumber643
p1622
(dp1623
VxPos
p1624
V-3.475
p1625
sVyPos
p1626
V-1.490239
p1627
ssVlightNumber642
p1628
(dp1629
VxPos
p1630
V-1.745656
p1631
sVyPos
p1632
V-1.025
p1633
ssVlightNumber645
p1634
(dp1635
VxPos
p1636
V-1.332053
p1637
sVyPos
p1638
V-1.975
p1639
ssVlightNumber644
p1640
(dp1641
VxPos
p1642
V-1.775395
p1643
sVyPos
p1644
V-1.975
p1645
ssVlightNumber647
p1646
(dp1647
VxPos
p1648
V-0.5659028
p1649
sVyPos
p1650
V-1.975
p1651
ssVlightNumber646
p1652
(dp1653
VxPos
p1654
V-1.064721
p1655
sVyPos
p1656
V-1.975
p1657
ssVlightNumber160
p1658
(dp1659
VxPos
p1660
V-1.195588
p1661
sVyPos
p1662
V-1.975
p1663
ssVlightNumber161
p1664
(dp1665
VxPos
p1666
V-0.5184504
p1667
sVyPos
p1668
V-1.975
p1669
ssVlightNumber162
p1670
(dp1671
VxPos
p1672
V2.006621
p1673
sVyPos
p1674
V-1.975
p1675
ssVlightNumber163
p1676
(dp1677
VxPos
p1678
V-0.8555129
p1679
sVyPos
p1680
V-1.025
p1681
ssVlightNumber164
p1682
(dp1683
VxPos
p1684
V-1.020792
p1685
sVyPos
p1686
V-1.025
p1687
ssVlightNumber165
p1688
(dp1689
VxPos
p1690
V-1.063449
p1691
sVyPos
p1692
V-1.025
p1693
ssVlightNumber166
p1694
(dp1695
VxPos
p1696
V-1.118926
p1697
sVyPos
p1698
V-1.025
p1699
ssVlightNumber167
p1700
(dp1701
VxPos
p1702
V-1.585172
p1703
sVyPos
p1704
V-1.025
p1705
ssVlightNumber168
p1706
(dp1707
VxPos
p1708
V-2.616846
p1709
sVyPos
p1710
V-1.975
p1711
ssVlightNumber169
p1712
(dp1713
VxPos
p1714
V-1.339391
p1715
sVyPos
p1716
V-1.975
p1717
ssVlightNumber787
p1718
(dp1719
VxPos
p1720
V-3.475
p1721
sVyPos
p1722
V2.838524
p1723
ssVlightNumber679
p1724
(dp1725
VxPos
p1726
V-2.179524
p1727
sVyPos
p1728
V-1.025
p1729
ssVlightNumber546
p1730
(dp1731
VxPos
p1732
V-2.384008
p1733
sVyPos
p1734
V-0.975
p1735
ssVlightNumber547
p1736
(dp1737
VxPos
p1738
V-1.495694
p1739
sVyPos
p1740
V-0.975
p1741
ssVlightNumber289
p1742
(dp1743
VxPos
p1744
V-0.5250001
p1745
sVyPos
p1746
V1.796374
p1747
ssVlightNumber288
p1748
(dp1749
VxPos
p1750
V-0.525
p1751
sVyPos
p1752
V0.8814055
p1753
ssVlightNumber939
p1754
(dp1755
VxPos
p1756
V1.475
p1757
sVyPos
p1758
V1.818222
p1759
ssVlightNumber938
p1760
(dp1761
VxPos
p1762
V0.4754733
p1763
sVyPos
p1764
V2.025
p1765
ssVlightNumber281
p1766
(dp1767
VxPos
p1768
V-1.966569
p1769
sVyPos
p1770
V1.975
p1771
ssVlightNumber280
p1772
(dp1773
VxPos
p1774
V-1.006524
p1775
sVyPos
p1776
V1.975
p1777
ssVlightNumber283
p1778
(dp1779
VxPos
p1780
V-2.475
p1781
sVyPos
p1782
V0.6544832
p1783
ssVlightNumber282
p1784
(dp1785
VxPos
p1786
V-2.475
p1787
sVyPos
p1788
V1.293256
p1789
ssVlightNumber285
p1790
(dp1791
VxPos
p1792
V-2.123141
p1793
sVyPos
p1794
V-0.975
p1795
ssVlightNumber284
p1796
(dp1797
VxPos
p1798
V-2.475
p1799
sVyPos
p1800
V0.04003918
p1801
ssVlightNumber287
p1802
(dp1803
VxPos
p1804
V-0.5250001
p1805
sVyPos
p1806
V0.06132853
p1807
ssVlightNumber286
p1808
(dp1809
VxPos
p1810
V-0.9903488
p1811
sVyPos
p1812
V-0.975
p1813
ssVlightNumber832
p1814
(dp1815
VxPos
p1816
V-1.796757
p1817
sVyPos
p1818
V2.025
p1819
ssVlightNumber833
p1820
(dp1821
VxPos
p1822
V-0.9886732
p1823
sVyPos
p1824
V2.975
p1825
ssVlightNumber830
p1826
(dp1827
VxPos
p1828
V-3.475
p1829
sVyPos
p1830
V0.3188143
p1831
ssVlightNumber578
p1832
(dp1833
VxPos
p1834
V0.2726553
p1835
sVyPos
p1836
V-1.975
p1837
ssVlightNumber836
p1838
(dp1839
VxPos
p1840
V-3.121755
p1841
sVyPos
p1842
V2.975
p1843
ssVlightNumber837
p1844
(dp1845
VxPos
p1846
V-3.475
p1847
sVyPos
p1848
V2.897473
p1849
ssVlightNumber834
p1850
(dp1851
VxPos
p1852
V-2.682254
p1853
sVyPos
p1854
V2.975
p1855
ssVlightNumber835
p1856
(dp1857
VxPos
p1858
V-2.932343
p1859
sVyPos
p1860
V2.975
p1861
ssVlightNumber838
p1862
(dp1863
VxPos
p1864
V-3.475
p1865
sVyPos
p1866
V2.503559
p1867
ssVlightNumber839
p1868
(dp1869
VxPos
p1870
V-3.475
p1871
sVyPos
p1872
V1.866029
p1873
ssVlightNumber548
p1874
(dp1875
VxPos
p1876
V-1.31068
p1877
sVyPos
p1878
V-0.975
p1879
ssVlightNumber549
p1880
(dp1881
VxPos
p1882
V-1.144072
p1883
sVyPos
p1884
V-0.975
p1885
ssVlightNumber573
p1886
(dp1887
VxPos
p1888
V-1.386736
p1889
sVyPos
p1890
V1.975
p1891
ssVlightNumber572
p1892
(dp1893
VxPos
p1894
V0.05923265
p1895
sVyPos
p1896
V0.975
p1897
ssVlightNumber579
p1898
(dp1899
VxPos
p1900
V2.035675
p1901
sVyPos
p1902
V-1.975
p1903
ssVlightNumber238
p1904
(dp1905
VxPos
p1906
V-0.9024051
p1907
sVyPos
p1908
V-0.975
p1909
ssVlightNumber239
p1910
(dp1911
VxPos
p1912
V0.4750001
p1913
sVyPos
p1914
V-0.8589466
p1915
ssVlightNumber948
p1916
(dp1917
VxPos
p1918
V0.4508743
p1919
sVyPos
p1920
V2.025
p1921
ssVlightNumber949
p1922
(dp1923
VxPos
p1924
V2.475
p1925
sVyPos
p1926
V1.431865
p1927
ssVlightNumber234
p1928
(dp1929
VxPos
p1930
V-2.475
p1931
sVyPos
p1932
V-0.2976302
p1933
ssVlightNumber235
p1934
(dp1935
VxPos
p1936
V-2.024128
p1937
sVyPos
p1938
V-0.975
p1939
ssVlightNumber236
p1940
(dp1941
VxPos
p1942
V-1.426192
p1943
sVyPos
p1944
V-0.975
p1945
ssVlightNumber237
p1946
(dp1947
VxPos
p1948
V-1.199236
p1949
sVyPos
p1950
V-0.975
p1951
ssVlightNumber230
p1952
(dp1953
VxPos
p1954
V0.475
p1955
sVyPos
p1956
V-0.1823202
p1957
ssVlightNumber231
p1958
(dp1959
VxPos
p1960
V-0.525
p1961
sVyPos
p1962
V0.0981428
p1963
ssVlightNumber232
p1964
(dp1965
VxPos
p1966
V-1.178413
p1967
sVyPos
p1968
V1.975
p1969
ssVlightNumber233
p1970
(dp1971
VxPos
p1972
V-2.475
p1973
sVyPos
p1974
V1.036808
p1975
ssVlightNumber586
p1976
(dp1977
VxPos
p1978
V-1.295717
p1979
sVyPos
p1980
V-1.975
p1981
ssVlightNumber587
p1982
(dp1983
VxPos
p1984
V-0.2942387
p1985
sVyPos
p1986
V-1.975
p1987
ssVlightNumber584
p1988
(dp1989
VxPos
p1990
V-2.475
p1991
sVyPos
p1992
V0.3012345
p1993
ssVlightNumber585
p1994
(dp1995
VxPos
p1996
V-1.416747
p1997
sVyPos
p1998
V-0.975
p1999
ssVlightNumber582
p2000
(dp2001
VxPos
p2002
V0.04240695
p2003
sVyPos
p2004
V0.975
p2005
ssVlightNumber583
p2006
(dp2007
VxPos
p2008
V-0.475
p2009
sVyPos
p2010
V-0.2507747
p2011
ssVlightNumber580
p2012
(dp2013
VxPos
p2014
V0.475
p2015
sVyPos
p2016
V-0.6015943
p2017
ssVlightNumber581
p2018
(dp2019
VxPos
p2020
V0.475
p2021
sVyPos
p2022
V-0.02967918
p2023
ssVlightNumber588
p2024
(dp2025
VxPos
p2026
V0.5826531
p2027
sVyPos
p2028
V-1.975
p2029
ssVlightNumber589
p2030
(dp2031
VxPos
p2032
V3.177268
p2033
sVyPos
p2034
V-1.975
p2035
ssVlightNumber461
p2036
(dp2037
VxPos
p2038
V-1.981918
p2039
sVyPos
p2040
V-0.975
p2041
ssVlightNumber460
p2042
(dp2043
VxPos
p2044
V-2.039677
p2045
sVyPos
p2046
V-0.975
p2047
ssVlightNumber463
p2048
(dp2049
VxPos
p2050
V0.4749997
p2051
sVyPos
p2052
V-0.9137981
p2053
ssVlightNumber462
p2054
(dp2055
VxPos
p2056
V-1.887837
p2057
sVyPos
p2058
V-0.975
p2059
ssVlightNumber465
p2060
(dp2061
VxPos
p2062
V-1.18625
p2063
sVyPos
p2064
V1.975
p2065
ssVlightNumber464
p2066
(dp2067
VxPos
p2068
V-0.525
p2069
sVyPos
p2070
V0.234557
p2071
ssVlightNumber467
p2072
(dp2073
VxPos
p2074
V-2.475
p2075
sVyPos
p2076
V-0.6113369
p2077
ssVlightNumber466
p2078
(dp2079
VxPos
p2080
V-2.475
p2081
sVyPos
p2082
V0.2518734
p2083
ssVlightNumber469
p2084
(dp2085
VxPos
p2086
V-2.216331
p2087
sVyPos
p2088
V-0.975
p2089
ssVlightNumber468
p2090
(dp2091
VxPos
p2092
V-2.475
p2093
sVyPos
p2094
V-0.8971806
p2095
ssVlightNumber742
p2096
(dp2097
VxPos
p2098
V-3.475
p2099
sVyPos
p2100
V-1.114534
p2101
ssVlightNumber743
p2102
(dp2103
VxPos
p2104
V-2.723295
p2105
sVyPos
p2106
V-1.975
p2107
ssVlightNumber744
p2108
(dp2109
VxPos
p2110
V-2.525
p2111
sVyPos
p2112
V-0.6270395
p2113
ssVlightNumber745
p2114
(dp2115
VxPos
p2116
V-2.525
p2117
sVyPos
p2118
V-0.1893156
p2119
ssVlightNumber746
p2120
(dp2121
VxPos
p2122
V-2.525
p2123
sVyPos
p2124
V0.1796367
p2125
ssVlightNumber747
p2126
(dp2127
VxPos
p2128
V-2.525
p2129
sVyPos
p2130
V1.064927
p2131
ssVlightNumber1010
p2132
(dp2133
VxPos
p2134
V-0.2476491
p2135
sVyPos
p2136
V1.975
p2137
ssVlightNumber1011
p2138
(dp2139
VxPos
p2140
V-0.475
p2141
sVyPos
p2142
V1.322905
p2143
ssVlightNumber1012
p2144
(dp2145
VxPos
p2146
V0.1695398
p2147
sVyPos
p2148
V1.025
p2149
ssVlightNumber1013
p2150
(dp2151
VxPos
p2152
V0.1664207
p2153
sVyPos
p2154
V-1.975
p2155
ssVlightNumber959
p2156
(dp2157
VxPos
p2158
V1.475
p2159
sVyPos
p2160
V1.965143
p2161
ssVlightNumber1015
p2162
(dp2163
VxPos
p2164
V3.475
p2165
sVyPos
p2166
V0.1286
p2167
ssVlightNumber1016
p2168
(dp2169
VxPos
p2170
V2.475
p2171
sVyPos
p2172
V1.80198
p2173
ssVlightNumber1017
p2174
(dp2175
VxPos
p2176
V1.926188
p2177
sVyPos
p2178
V2.975
p2179
ssVlightNumber933
p2180
(dp2181
VxPos
p2182
V0.05023269
p2183
sVyPos
p2184
V2.975
p2185
ssVlightNumber1019
p2186
(dp2187
VxPos
p2188
V0.1100947
p2189
sVyPos
p2190
V1.975
p2191
ssVlightNumber798
p2192
(dp2193
VxPos
p2194
V-3.475
p2195
sVyPos
p2196
V1.874321
p2197
ssVlightNumber777
p2198
(dp2199
VxPos
p2200
V-3.248177
p2201
sVyPos
p2202
V2.975
p2203
ssVlightNumber308
p2204
(dp2205
VxPos
p2206
V-0.5249999
p2207
sVyPos
p2208
V1.660074
p2209
ssVlightNumber309
p2210
(dp2211
VxPos
p2212
V-1.14755
p2213
sVyPos
p2214
V1.975
p2215
ssVlightNumber958
p2216
(dp2217
VxPos
p2218
V1.475
p2219
sVyPos
p2220
V1.023266
p2221
ssVlightNumber776
p2222
(dp2223
VxPos
p2224
V-2.525
p2225
sVyPos
p2226
V1.724779
p2227
ssVlightNumber910
p2228
(dp2229
VxPos
p2230
V2.475
p2231
sVyPos
p2232
V1.376658
p2233
ssVlightNumber300
p2234
(dp2235
VxPos
p2236
V-1.651631
p2237
sVyPos
p2238
V1.975
p2239
ssVlightNumber301
p2240
(dp2241
VxPos
p2242
V-2.201654
p2243
sVyPos
p2244
V1.975
p2245
ssVlightNumber302
p2246
(dp2247
VxPos
p2248
V-2.475
p2249
sVyPos
p2250
V1.523484
p2251
ssVlightNumber303
p2252
(dp2253
VxPos
p2254
V-2.475
p2255
sVyPos
p2256
V0.9966916
p2257
ssVlightNumber304
p2258
(dp2259
VxPos
p2260
V-2.475
p2261
sVyPos
p2262
V0.08079994
p2263
ssVlightNumber305
p2264
(dp2265
VxPos
p2266
V-1.568907
p2267
sVyPos
p2268
V-0.9749998
p2269
ssVlightNumber306
p2270
(dp2271
VxPos
p2272
V-0.525
p2273
sVyPos
p2274
V-0.1368244
p2275
ssVlightNumber307
p2276
(dp2277
VxPos
p2278
V-0.5249999
p2279
sVyPos
p2280
V0.9369931
p2281
ssVlightNumber519
p2282
(dp2283
VxPos
p2284
V-2.254504
p2285
sVyPos
p2286
V-0.975
p2287
ssVlightNumber518
p2288
(dp2289
VxPos
p2290
V-2.349288
p2291
sVyPos
p2292
V-0.975
p2293
ssVlightNumber515
p2294
(dp2295
VxPos
p2296
V-2.475
p2297
sVyPos
p2298
V-0.5572985
p2299
ssVlightNumber514
p2300
(dp2301
VxPos
p2302
V-2.071859
p2303
sVyPos
p2304
V1.975
p2305
ssVlightNumber517
p2306
(dp2307
VxPos
p2308
V-2.475
p2309
sVyPos
p2310
V-0.9317557
p2311
ssVlightNumber516
p2312
(dp2313
VxPos
p2314
V-2.475
p2315
sVyPos
p2316
V-0.7964749
p2317
ssVlightNumber511
p2318
(dp2319
VxPos
p2320
V-2.041996
p2321
sVyPos
p2322
V-0.9750001
p2323
ssVlightNumber510
p2324
(dp2325
VxPos
p2326
V-2.209957
p2327
sVyPos
p2328
V-0.975
p2329
ssVlightNumber513
p2330
(dp2331
VxPos
p2332
V-0.5249999
p2333
sVyPos
p2334
V1.137041
p2335
ssVlightNumber512
p2336
(dp2337
VxPos
p2338
V0.4749997
p2339
sVyPos
p2340
V-0.2868606
p2341
ssVlightNumber930
p2342
(dp2343
VxPos
p2344
V3.475
p2345
sVyPos
p2346
V2.426897
p2347
ssVlightNumber931
p2348
(dp2349
VxPos
p2350
V0.8541306
p2351
sVyPos
p2352
V2.975
p2353
ssVlightNumber124
p2354
(dp2355
VxPos
p2356
V-0.7765929
p2357
sVyPos
p2358
V-1.025
p2359
ssVlightNumber125
p2360
(dp2361
VxPos
p2362
V-1.017832
p2363
sVyPos
p2364
V-1.025
p2365
ssVlightNumber126
p2366
(dp2367
VxPos
p2368
V-1.101071
p2369
sVyPos
p2370
V-1.025
p2371
ssVlightNumber127
p2372
(dp2373
VxPos
p2374
V-1.190201
p2375
sVyPos
p2376
V-1.025
p2377
ssVlightNumber120
p2378
(dp2379
VxPos
p2380
V-1.733849
p2381
sVyPos
p2382
V-1.975
p2383
ssVlightNumber121
p2384
(dp2385
VxPos
p2386
V-1.087535
p2387
sVyPos
p2388
V-1.975
p2389
ssVlightNumber122
p2390
(dp2391
VxPos
p2392
V-0.4745633
p2393
sVyPos
p2394
V-1.975
p2395
ssVlightNumber123
p2396
(dp2397
VxPos
p2398
V1.526636
p2399
sVyPos
p2400
V-1.975
p2401
ssVlightNumber128
p2402
(dp2403
VxPos
p2404
V-1.563232
p2405
sVyPos
p2406
V-1.025
p2407
ssVlightNumber129
p2408
(dp2409
VxPos
p2410
V-3.012303
p2411
sVyPos
p2412
V-1.975
p2413
ssVlightNumber1006
p2414
(dp2415
VxPos
p2416
V2.475
p2417
sVyPos
p2418
V1.787247
p2419
ssVlightNumber88
p2420
(dp2421
VxPos
p2422
V-0.6188915
p2423
sVyPos
p2424
V-1.025
p2425
ssVlightNumber89
p2426
(dp2427
VxPos
p2428
V-0.9225219
p2429
sVyPos
p2430
V-1.025
p2431
ssVlightNumber82
p2432
(dp2433
VxPos
p2434
V-0.5124668
p2435
sVyPos
p2436
V-1.975
p2437
ssVlightNumber83
p2438
(dp2439
VxPos
p2440
V0.07808241
p2441
sVyPos
p2442
V-1.975
p2443
ssVlightNumber80
p2444
(dp2445
VxPos
p2446
V-3.475
p2447
sVyPos
p2448
V-1.777508
p2449
ssVlightNumber81
p2450
(dp2451
VxPos
p2452
V-1.152467
p2453
sVyPos
p2454
V-1.975
p2455
ssVlightNumber86
p2456
(dp2457
VxPos
p2458
V1.845915
p2459
sVyPos
p2460
V1.975
p2461
ssVlightNumber87
p2462
(dp2463
VxPos
p2464
V-0.5203086
p2465
sVyPos
p2466
V-1.025
p2467
ssVlightNumber84
p2468
(dp2469
VxPos
p2470
V1.742343
p2471
sVyPos
p2472
V-1.975
p2473
ssVlightNumber85
p2474
(dp2475
VxPos
p2476
V0.4749999
p2477
sVyPos
p2478
V-0.8585317
p2479
ssVlightNumber726
p2480
(dp2481
VxPos
p2482
V-2.525
p2483
sVyPos
p2484
V-0.6798444
p2485
ssVlightNumber788
p2486
(dp2487
VxPos
p2488
V-3.475
p2489
sVyPos
p2490
V1.653753
p2491
ssVlightNumber955
p2492
(dp2493
VxPos
p2494
V0.1248501
p2495
sVyPos
p2496
V2.025
p2497
ssVlightNumber727
p2498
(dp2499
VxPos
p2500
V-2.525
p2501
sVyPos
p2502
V-0.2136847
p2503
ssVlightNumber1008
p2504
(dp2505
VxPos
p2506
V0.9020516
p2507
sVyPos
p2508
V2.975
p2509
ssVlightNumber848
p2510
(dp2511
VxPos
p2512
V-3.475
p2513
sVyPos
p2514
V2.224417
p2515
ssVlightNumber719
p2516
(dp2517
VxPos
p2518
V-3.475
p2519
sVyPos
p2520
V0.2135944
p2521
ssVlightNumber718
p2522
(dp2523
VxPos
p2524
V-2.525
p2525
sVyPos
p2526
V0.6583657
p2527
ssVlightNumber789
p2528
(dp2529
VxPos
p2530
V-3.475
p2531
sVyPos
p2532
V1.330762
p2533
ssVlightNumber954
p2534
(dp2535
VxPos
p2536
V-2.998114
p2537
sVyPos
p2538
V2.975
p2539
ssVlightNumber728
p2540
(dp2541
VxPos
p2542
V-2.621662
p2543
sVyPos
p2544
V2.975
p2545
ssVlightNumber630
p2546
(dp2547
VxPos
p2548
V1.475
p2549
sVyPos
p2550
V1.915205
p2551
ssVlightNumber631
p2552
(dp2553
VxPos
p2554
V-0.774806
p2555
sVyPos
p2556
V-1.025
p2557
ssVlightNumber632
p2558
(dp2559
VxPos
p2560
V-1.237666
p2561
sVyPos
p2562
V-1.025
p2563
ssVlightNumber633
p2564
(dp2565
VxPos
p2566
V-3.475
p2567
sVyPos
p2568
V-1.030647
p2569
ssVlightNumber634
p2570
(dp2571
VxPos
p2572
V-1.700798
p2573
sVyPos
p2574
V-1.975
p2575
ssVlightNumber635
p2576
(dp2577
VxPos
p2578
V-1.079573
p2579
sVyPos
p2580
V-1.975
p2581
ssVlightNumber636
p2582
(dp2583
VxPos
p2584
V-0.8193357
p2585
sVyPos
p2586
V-1.975
p2587
ssVlightNumber637
p2588
(dp2589
VxPos
p2590
V-0.4656139
p2591
sVyPos
p2592
V-1.975
p2593
ssVlightNumber638
p2594
(dp2595
VxPos
p2596
V3.163807
p2597
sVyPos
p2598
V-1.975
p2599
ssVlightNumber639
p2600
(dp2601
VxPos
p2602
V0.475
p2603
sVyPos
p2604
V-0.6560084
p2605
ssVlightNumber883
p2606
(dp2607
VxPos
p2608
V-1.143208
p2609
sVyPos
p2610
V2.975
p2611
ssVlightNumber713
p2612
(dp2613
VxPos
p2614
V-3.308549
p2615
sVyPos
p2616
V-1.975
p2617
ssVlightNumber881
p2618
(dp2619
VxPos
p2620
V1.475
p2621
sVyPos
p2622
V1.821372
p2623
ssVlightNumber880
p2624
(dp2625
VxPos
p2626
V-1.018021
p2627
sVyPos
p2628
V2.025
p2629
ssVlightNumber887
p2630
(dp2631
VxPos
p2632
V-2.352431
p2633
sVyPos
p2634
V2.025
p2635
ssVlightNumber886
p2636
(dp2637
VxPos
p2638
V-3.422947
p2639
sVyPos
p2640
V2.975
p2641
ssVlightNumber39
p2642
(dp2643
VxPos
p2644
V0.2633434
p2645
sVyPos
p2646
V0.975
p2647
ssVlightNumber38
p2648
(dp2649
VxPos
p2650
V1.594847
p2651
sVyPos
p2652
V0.9750001
p2653
ssVlightNumber37
p2654
(dp2655
VxPos
p2656
V0.475
p2657
sVyPos
p2658
V-0.3549099
p2659
ssVlightNumber36
p2660
(dp2661
VxPos
p2662
V0.475
p2663
sVyPos
p2664
V-0.7096353
p2665
ssVlightNumber35
p2666
(dp2667
VxPos
p2668
V0.5147556
p2669
sVyPos
p2670
V-1.975
p2671
ssVlightNumber34
p2672
(dp2673
VxPos
p2674
V-0.6038116
p2675
sVyPos
p2676
V-1.975
p2677
ssVlightNumber33
p2678
(dp2679
VxPos
p2680
V-1.087571
p2681
sVyPos
p2682
V-0.9750001
p2683
ssVlightNumber32
p2684
(dp2685
VxPos
p2686
V-0.475
p2687
sVyPos
p2688
V-0.2015343
p2689
ssVlightNumber31
p2690
(dp2691
VxPos
p2692
V-0.475
p2693
sVyPos
p2694
V0.1633854
p2695
ssVlightNumber30
p2696
(dp2697
VxPos
p2698
V-0.3252891
p2699
sVyPos
p2700
V0.9750001
p2701
ssVlightNumber673
p2702
(dp2703
VxPos
p2704
V-3.039236
p2705
sVyPos
p2706
V-1.975
p2707
ssVlightNumber903
p2708
(dp2709
VxPos
p2710
V-0.6237463
p2711
sVyPos
p2712
V2.975
p2713
ssVlightNumber889
p2714
(dp2715
VxPos
p2716
V-1.058768
p2717
sVyPos
p2718
V2.025
p2719
ssVlightNumber901
p2720
(dp2721
VxPos
p2722
V3.475
p2723
sVyPos
p2724
V2.948195
p2725
ssVlightNumber869
p2726
(dp2727
VxPos
p2728
V-1.930082
p2729
sVyPos
p2730
V2.025
p2731
ssVlightNumber868
p2732
(dp2733
VxPos
p2734
V-2.483185
p2735
sVyPos
p2736
V2.025
p2737
ssVlightNumber904
p2738
(dp2739
VxPos
p2740
V-0.8642417
p2741
sVyPos
p2742
V2.975
p2743
ssVlightNumber905
p2744
(dp2745
VxPos
p2746
V-1.425915
p2747
sVyPos
p2748
V2.975
p2749
ssVlightNumber865
p2750
(dp2751
VxPos
p2752
V-2.120234
p2753
sVyPos
p2754
V2.975
p2755
ssVlightNumber864
p2756
(dp2757
VxPos
p2758
V-1.915395
p2759
sVyPos
p2760
V2.975
p2761
ssVlightNumber867
p2762
(dp2763
VxPos
p2764
V-3.475
p2765
sVyPos
p2766
V2.425605
p2767
ssVlightNumber714
p2768
(dp2769
VxPos
p2770
V-2.778556
p2771
sVyPos
p2772
V-1.975
p2773
ssVlightNumber861
p2774
(dp2775
VxPos
p2776
V-1.245256
p2777
sVyPos
p2778
V2.025
p2779
ssVlightNumber860
p2780
(dp2781
VxPos
p2782
V-1.941221
p2783
sVyPos
p2784
V2.025
p2785
ssVlightNumber863
p2786
(dp2787
VxPos
p2788
V-1.602576
p2789
sVyPos
p2790
V2.975
p2791
ssVlightNumber862
p2792
(dp2793
VxPos
p2794
V3.475
p2795
sVyPos
p2796
V2.818338
p2797
ssVlightNumber708
p2798
(dp2799
VxPos
p2800
V-2.525
p2801
sVyPos
p2802
V-0.368286
p2803
ssVlightNumber709
p2804
(dp2805
VxPos
p2806
V-3.475
p2807
sVyPos
p2808
V1.051481
p2809
ssVlightNumber704
p2810
(dp2811
VxPos
p2812
V-2.953329
p2813
sVyPos
p2814
V-1.975
p2815
ssVlightNumber705
p2816
(dp2817
VxPos
p2818
V-2.491067
p2819
sVyPos
p2820
V-1.975
p2821
ssVlightNumber706
p2822
(dp2823
VxPos
p2824
V0.1561737
p2825
sVyPos
p2826
V-1.975
p2827
ssVlightNumber707
p2828
(dp2829
VxPos
p2830
V-2.276702
p2831
sVyPos
p2832
V-1.025
p2833
ssVlightNumber700
p2834
(dp2835
VxPos
p2836
V-3.475
p2837
sVyPos
p2838
V-0.8440826
p2839
ssVlightNumber701
p2840
(dp2841
VxPos
p2842
V-3.475
p2843
sVyPos
p2844
V-1.288831
p2845
ssVlightNumber702
p2846
(dp2847
VxPos
p2848
V-3.475
p2849
sVyPos
p2850
V-1.626634
p2851
ssVlightNumber703
p2852
(dp2853
VxPos
p2854
V-3.330459
p2855
sVyPos
p2856
V-1.975
p2857
ssVlightNumber989
p2858
(dp2859
VxPos
p2860
V2.741027
p2861
sVyPos
p2862
V2.975
p2863
ssVlightNumber951
p2864
(dp2865
VxPos
p2866
V0.9435058
p2867
sVyPos
p2868
V2.975
p2869
ssVlightNumber978
p2870
(dp2871
VxPos
p2872
V2.475
p2873
sVyPos
p2874
V1.166923
p2875
ssVlightNumber950
p2876
(dp2877
VxPos
p2878
V2.937926
p2879
sVyPos
p2880
V2.975
p2881
ssVlightNumber348
p2882
(dp2883
VxPos
p2884
V-0.525
p2885
sVyPos
p2886
V0.7772408
p2887
ssVlightNumber349
p2888
(dp2889
VxPos
p2890
V-1.227624
p2891
sVyPos
p2892
V1.975
p2893
ssVlightNumber344
p2894
(dp2895
VxPos
p2896
V-0.8252105
p2897
sVyPos
p2898
V-0.975
p2899
ssVlightNumber345
p2900
(dp2901
VxPos
p2902
V-0.525
p2903
sVyPos
p2904
V-0.28056
p2905
ssVlightNumber346
p2906
(dp2907
VxPos
p2908
V-0.525
p2909
sVyPos
p2910
V0.05594521
p2911
ssVlightNumber347
p2912
(dp2913
VxPos
p2914
V-0.525
p2915
sVyPos
p2916
V0.2818434
p2917
ssVlightNumber340
p2918
(dp2919
VxPos
p2920
V-2.339829
p2921
sVyPos
p2922
V1.975
p2923
ssVlightNumber341
p2924
(dp2925
VxPos
p2926
V-2.475
p2927
sVyPos
p2928
V0.6554326
p2929
ssVlightNumber342
p2930
(dp2931
VxPos
p2932
V-2.475
p2933
sVyPos
p2934
V-0.368659
p2935
ssVlightNumber343
p2936
(dp2937
VxPos
p2938
V-1.675068
p2939
sVyPos
p2940
V-0.975
p2941
ssVlightNumber267
p2942
(dp2943
VxPos
p2944
V-0.7087221
p2945
sVyPos
p2946
V-0.975
p2947
ssVlightNumber266
p2948
(dp2949
VxPos
p2950
V-1.521667
p2951
sVyPos
p2952
V-0.975
p2953
ssVlightNumber265
p2954
(dp2955
VxPos
p2956
V-2.284775
p2957
sVyPos
p2958
V-0.975
p2959
ssVlightNumber264
p2960
(dp2961
VxPos
p2962
V-2.475
p2963
sVyPos
p2964
V-0.2653018
p2965
ssVlightNumber263
p2966
(dp2967
VxPos
p2968
V-2.475
p2969
sVyPos
p2970
V0.3488874
p2971
ssVlightNumber262
p2972
(dp2973
VxPos
p2974
V-2.475
p2975
sVyPos
p2976
V1.499763
p2977
ssVlightNumber261
p2978
(dp2979
VxPos
p2980
V-1.318052
p2981
sVyPos
p2982
V1.975
p2983
ssVlightNumber260
p2984
(dp2985
VxPos
p2986
V-0.525
p2987
sVyPos
p2988
V0.9545518
p2989
ssVlightNumber269
p2990
(dp2991
VxPos
p2992
V-0.5250001
p2993
sVyPos
p2994
V0.5639995
p2995
ssVlightNumber268
p2996
(dp2997
VxPos
p2998
V-0.5250001
p2999
sVyPos
p3000
V-0.145417
p3001
ssVlightNumber418
p3002
(dp3003
VxPos
p3004
V-2.475
p3005
sVyPos
p3006
V0.5848247
p3007
ssVlightNumber419
p3008
(dp3009
VxPos
p3010
V-2.475
p3011
sVyPos
p3012
V-0.6520002
p3013
ssVlightNumber553
p3014
(dp3015
VxPos
p3016
V-1.07668
p3017
sVyPos
p3018
V1.975
p3019
ssVlightNumber552
p3020
(dp3021
VxPos
p3022
V-0.525
p3023
sVyPos
p3024
V0.03266519
p3025
ssVlightNumber555
p3026
(dp3027
VxPos
p3028
V-2.475
p3029
sVyPos
p3030
V-0.3359695
p3031
ssVlightNumber554
p3032
(dp3033
VxPos
p3034
V-2.475
p3035
sVyPos
p3036
V1.132525
p3037
ssVlightNumber557
p3038
(dp3039
VxPos
p3040
V-1.128767
p3041
sVyPos
p3042
V-0.975
p3043
ssVlightNumber556
p3044
(dp3045
VxPos
p3046
V-1.597888
p3047
sVyPos
p3048
V-0.975
p3049
ssVlightNumber410
p3050
(dp3051
VxPos
p3052
V-1.158992
p3053
sVyPos
p3054
V-0.975
p3055
ssVlightNumber411
p3056
(dp3057
VxPos
p3058
V-0.9391752
p3059
sVyPos
p3060
V-0.975
p3061
ssVlightNumber412
p3062
(dp3063
VxPos
p3064
V-0.8916236
p3065
sVyPos
p3066
V-0.975
p3067
ssVlightNumber413
p3068
(dp3069
VxPos
p3070
V-0.8397601
p3071
sVyPos
p3072
V-0.975
p3073
ssVlightNumber414
p3074
(dp3075
VxPos
p3076
V-0.5330158
p3077
sVyPos
p3078
V-0.9750001
p3079
ssVlightNumber415
p3080
(dp3081
VxPos
p3082
V0.475
p3083
sVyPos
p3084
V-0.2509633
p3085
ssVlightNumber416
p3086
(dp3087
VxPos
p3088
V-0.525
p3089
sVyPos
p3090
V-0.02576441
p3091
ssVlightNumber417
p3092
(dp3093
VxPos
p3094
V-1.390652
p3095
sVyPos
p3096
V1.975
p3097
ssVlightNumber952
p3098
(dp3099
VxPos
p3100
V0.3313503
p3101
sVyPos
p3102
V2.975
p3103
ssVlightNumber779
p3104
(dp3105
VxPos
p3106
V-3.475
p3107
sVyPos
p3108
V1.080716
p3109
ssVlightNumber981
p3110
(dp3111
VxPos
p3112
V0.5736416
p3113
sVyPos
p3114
V2.975
p3115
ssVlightNumber908
p3116
(dp3117
VxPos
p3118
V-0.5918311
p3119
sVyPos
p3120
V2.025
p3121
ssVlightNumber64
p3122
(dp3123
VxPos
p3124
V0.6327487
p3125
sVyPos
p3126
V-1.975
p3127
ssVlightNumber65
p3128
(dp3129
VxPos
p3130
V3.475
p3131
sVyPos
p3132
V-1.601223
p3133
ssVlightNumber66
p3134
(dp3135
VxPos
p3136
V0.475
p3137
sVyPos
p3138
V-0.9897462
p3139
ssVlightNumber67
p3140
(dp3141
VxPos
p3142
V1.465891
p3143
sVyPos
p3144
V2.975
p3145
ssVlightNumber60
p3146
(dp3147
VxPos
p3148
V-1.111807
p3149
sVyPos
p3150
V-1.025
p3151
ssVlightNumber61
p3152
(dp3153
VxPos
p3154
V-1.545918
p3155
sVyPos
p3156
V-1.975
p3157
ssVlightNumber62
p3158
(dp3159
VxPos
p3160
V-0.459155
p3161
sVyPos
p3162
V-1.975
p3163
ssVlightNumber63
p3164
(dp3165
VxPos
p3166
V0.02409229
p3167
sVyPos
p3168
V-1.975
p3169
ssVlightNumber68
p3170
(dp3171
VxPos
p3172
V-0.475
p3173
sVyPos
p3174
V-0.2949284
p3175
ssVlightNumber69
p3176
(dp3177
VxPos
p3178
V-0.6703529
p3179
sVyPos
p3180
V-1.025
p3181
ssVlightNumber674
p3182
(dp3183
VxPos
p3184
V-2.387587
p3185
sVyPos
p3186
V-1.975
p3187
ssVlightNumber675
p3188
(dp3189
VxPos
p3190
V-2.077789
p3191
sVyPos
p3192
V-1.975
p3193
ssVlightNumber676
p3194
(dp3195
VxPos
p3196
V-1.619742
p3197
sVyPos
p3198
V-1.975
p3199
ssVlightNumber677
p3200
(dp3201
VxPos
p3202
V3.475
p3203
sVyPos
p3204
V-1.76281
p3205
ssVlightNumber670
p3206
(dp3207
VxPos
p3208
V-2.092005
p3209
sVyPos
p3210
V-1.025
p3211
ssVlightNumber671
p3212
(dp3213
VxPos
p3214
V-3.475
p3215
sVyPos
p3216
V-0.06115079
p3217
ssVlightNumber179
p3218
(dp3219
VxPos
p3220
V-0.8419551
p3221
sVyPos
p3222
V-1.975
p3223
ssVlightNumber178
p3224
(dp3225
VxPos
p3226
V-1.753635
p3227
sVyPos
p3228
V-1.975
p3229
ssVlightNumber177
p3230
(dp3231
VxPos
p3232
V-3.475
p3233
sVyPos
p3234
V-1.130004
p3235
ssVlightNumber176
p3236
(dp3237
VxPos
p3238
V-0.8370602
p3239
sVyPos
p3240
V-1.025
p3241
ssVlightNumber175
p3242
(dp3243
VxPos
p3244
V-0.760626
p3245
sVyPos
p3246
V-1.025
p3247
ssVlightNumber174
p3248
(dp3249
VxPos
p3250
V-0.7230717
p3251
sVyPos
p3252
V-1.025
p3253
ssVlightNumber173
p3254
(dp3255
VxPos
p3256
V-0.628239
p3257
sVyPos
p3258
V-1.025
p3259
ssVlightNumber172
p3260
(dp3261
VxPos
p3262
V3.475
p3263
sVyPos
p3264
V-1.506561
p3265
ssVlightNumber171
p3266
(dp3267
VxPos
p3268
V0.07633716
p3269
sVyPos
p3270
V-1.975
p3271
ssVlightNumber170
p3272
(dp3273
VxPos
p3274
V-0.7306529
p3275
sVyPos
p3276
V-1.975
p3277
ssVlightNumber678
p3278
(dp3279
VxPos
p3280
V-1.650295
p3281
sVyPos
p3282
V-1.025
p3283
ssVlightNumber368
p3284
(dp3285
VxPos
p3286
V-0.525
p3287
sVyPos
p3288
V0.2913981
p3289
ssVlightNumber369
p3290
(dp3291
VxPos
p3292
V-2.068779
p3293
sVyPos
p3294
V1.975
p3295
ssVlightNumber821
p3296
(dp3297
VxPos
p3298
V-2.525
p3299
sVyPos
p3300
V0.6746856
p3301
ssVlightNumber820
p3302
(dp3303
VxPos
p3304
V-3.475
p3305
sVyPos
p3306
V1.173297
p3307
ssVlightNumber823
p3308
(dp3309
VxPos
p3310
V3.475
p3311
sVyPos
p3312
V2.361782
p3313
ssVlightNumber822
p3314
(dp3315
VxPos
p3316
V-2.456414
p3317
sVyPos
p3318
V2.025
p3319
ssVlightNumber825
p3320
(dp3321
VxPos
p3322
V-2.856143
p3323
sVyPos
p3324
V2.975
p3325
ssVlightNumber824
p3326
(dp3327
VxPos
p3328
V-2.346197
p3329
sVyPos
p3330
V2.975
p3331
ssVlightNumber827
p3332
(dp3333
VxPos
p3334
V-3.475
p3335
sVyPos
p3336
V2.924404
p3337
ssVlightNumber826
p3338
(dp3339
VxPos
p3340
V-3.134094
p3341
sVyPos
p3342
V2.975
p3343
ssVlightNumber829
p3344
(dp3345
VxPos
p3346
V-3.475
p3347
sVyPos
p3348
V2.21844
p3349
ssVlightNumber828
p3350
(dp3351
VxPos
p3352
V-3.475
p3353
sVyPos
p3354
V2.607649
p3355
ssVlightNumber882
p3356
(dp3357
VxPos
p3358
V-0.4746858
p3359
sVyPos
p3360
V2.975
p3361
ssVlightNumber182
p3362
(dp3363
VxPos
p3364
V0.6977376
p3365
sVyPos
p3366
V-1.025
p3367
ssVlightNumber183
p3368
(dp3369
VxPos
p3370
V0.475
p3371
sVyPos
p3372
V-0.2769814
p3373
ssVlightNumber180
p3374
(dp3375
VxPos
p3376
V-0.2427846
p3377
sVyPos
p3378
V-1.975
p3379
ssVlightNumber181
p3380
(dp3381
VxPos
p3382
V0.8175648
p3383
sVyPos
p3384
V-1.975
p3385
ssVlightNumber186
p3386
(dp3387
VxPos
p3388
V-0.5237443
p3389
sVyPos
p3390
V-1.025
p3391
ssVlightNumber187
p3392
(dp3393
VxPos
p3394
V-3.475
p3395
sVyPos
p3396
V-1.644019
p3397
ssVlightNumber184
p3398
(dp3399
VxPos
p3400
V-0.03040233
p3401
sVyPos
p3402
V0.975
p3403
ssVlightNumber185
p3404
(dp3405
VxPos
p3406
V-1.911062
p3407
sVyPos
p3408
V1.975
p3409
ssVlightNumber188
p3410
(dp3411
VxPos
p3412
V-1.142948
p3413
sVyPos
p3414
V-1.975
p3415
ssVlightNumber189
p3416
(dp3417
VxPos
p3418
V-0.3729966
p3419
sVyPos
p3420
V-1.975
p3421
ssVlightNumber531
p3422
(dp3423
VxPos
p3424
V3.475
p3425
sVyPos
p3426
V-1.302007
p3427
ssVlightNumber530
p3428
(dp3429
VxPos
p3430
V-1.738316
p3431
sVyPos
p3432
V-0.975
p3433
ssVlightNumber866
p3434
(dp3435
VxPos
p3436
V-2.551846
p3437
sVyPos
p3438
V2.975
p3439
ssVlightNumber380
p3440
(dp3441
VxPos
p3442
V-2.475
p3443
sVyPos
p3444
V-0.3002471
p3445
ssVlightNumber381
p3446
(dp3447
VxPos
p3448
V-0.7161491
p3449
sVyPos
p3450
V-0.975
p3451
ssVlightNumber229
p3452
(dp3453
VxPos
p3454
V2.770948
p3455
sVyPos
p3456
V-1.975
p3457
ssVlightNumber228
p3458
(dp3459
VxPos
p3460
V-0.7673453
p3461
sVyPos
p3462
V-0.975
p3463
ssVlightNumber384
p3464
(dp3465
VxPos
p3466
V0.9331415
p3467
sVyPos
p3468
V-1.975
p3469
ssVlightNumber385
p3470
(dp3471
VxPos
p3472
V0.475
p3473
sVyPos
p3474
V-0.938625
p3475
ssVlightNumber386
p3476
(dp3477
VxPos
p3478
V0.475
p3479
sVyPos
p3480
V-0.4266337
p3481
ssVlightNumber387
p3482
(dp3483
VxPos
p3484
V1.378061
p3485
sVyPos
p3486
V2.975
p3487
ssVlightNumber223
p3488
(dp3489
VxPos
p3490
V-2.306597
p3491
sVyPos
p3492
V1.975
p3493
ssVlightNumber222
p3494
(dp3495
VxPos
p3496
V-0.525
p3497
sVyPos
p3498
V0.9853455
p3499
ssVlightNumber221
p3500
(dp3501
VxPos
p3502
V1.999589
p3503
sVyPos
p3504
V1.975
p3505
ssVlightNumber220
p3506
(dp3507
VxPos
p3508
V0.475
p3509
sVyPos
p3510
V-0.6063302
p3511
ssVlightNumber227
p3512
(dp3513
VxPos
p3514
V-0.9423747
p3515
sVyPos
p3516
V-0.975
p3517
ssVlightNumber226
p3518
(dp3519
VxPos
p3520
V-1.118237
p3521
sVyPos
p3522
V-0.975
p3523
ssVlightNumber225
p3524
(dp3525
VxPos
p3526
V-1.965935
p3527
sVyPos
p3528
V-0.975
p3529
ssVlightNumber224
p3530
(dp3531
VxPos
p3532
V-2.475
p3533
sVyPos
p3534
V0.0002009869
p3535
ssVlightNumber595
p3536
(dp3537
VxPos
p3538
V-2.553693
p3539
sVyPos
p3540
V-1.975
p3541
ssVlightNumber594
p3542
(dp3543
VxPos
p3544
V-2.475
p3545
sVyPos
p3546
V-0.4117156
p3547
ssVlightNumber597
p3548
(dp3549
VxPos
p3550
V-0.1498926
p3551
sVyPos
p3552
V-1.975
p3553
ssVlightNumber596
p3554
(dp3555
VxPos
p3556
V-0.802411
p3557
sVyPos
p3558
V-1.975
p3559
ssVlightNumber458
p3560
(dp3561
VxPos
p3562
V-2.475
p3563
sVyPos
p3564
V-0.8169935
p3565
ssVlightNumber459
p3566
(dp3567
VxPos
p3568
V-2.158963
p3569
sVyPos
p3570
V-0.975
p3571
ssVlightNumber593
p3572
(dp3573
VxPos
p3574
V-2.475
p3575
sVyPos
p3576
V1.816546
p3577
ssVlightNumber592
p3578
(dp3579
VxPos
p3580
V-0.310806
p3581
sVyPos
p3582
V0.9749999
p3583
ssVlightNumber454
p3584
(dp3585
VxPos
p3586
V-0.525
p3587
sVyPos
p3588
V-0.1939339
p3589
ssVlightNumber455
p3590
(dp3591
VxPos
p3592
V-0.525
p3593
sVyPos
p3594
V1.881443
p3595
ssVlightNumber456
p3596
(dp3597
VxPos
p3598
V-2.44358
p3599
sVyPos
p3600
V1.975
p3601
ssVlightNumber457
p3602
(dp3603
VxPos
p3604
V-2.475
p3605
sVyPos
p3606
V-0.3864676
p3607
ssVlightNumber450
p3608
(dp3609
VxPos
p3610
V-1.909271
p3611
sVyPos
p3612
V-0.975
p3613
ssVlightNumber382
p3614
(dp3615
VxPos
p3616
V-0.8990086
p3617
sVyPos
p3618
V-1.975
p3619
ssVlightNumber452
p3620
(dp3621
VxPos
p3622
V-1.783895
p3623
sVyPos
p3624
V-0.975
p3625
ssVlightNumber453
p3626
(dp3627
VxPos
p3628
V-1.354996
p3629
sVyPos
p3630
V-0.975
p3631
ssVlightNumber757
p3632
(dp3633
VxPos
p3634
V-2.377619
p3635
sVyPos
p3636
V2.975
p3637
ssVlightNumber756
p3638
(dp3639
VxPos
p3640
V-2.525
p3641
sVyPos
p3642
V0.6374296
p3643
ssVlightNumber755
p3644
(dp3645
VxPos
p3646
V-2.525
p3647
sVyPos
p3648
V0.2285632
p3649
ssVlightNumber383
p3650
(dp3651
VxPos
p3652
V-0.07162648
p3653
sVyPos
p3654
V-1.975
p3655
ssVlightNumber753
p3656
(dp3657
VxPos
p3658
V-2.27573
p3659
sVyPos
p3660
V-1.975
p3661
ssVlightNumber539
p3662
(dp3663
VxPos
p3664
V-1.528605
p3665
sVyPos
p3666
V-0.975
p3667
ssVlightNumber698
p3668
(dp3669
VxPos
p3670
V-2.525
p3671
sVyPos
p3672
V-0.8178467
p3673
ssVlightNumber699
p3674
(dp3675
VxPos
p3676
V-3.072084
p3677
sVyPos
p3678
V2.975
p3679
ssVlightNumber696
p3680
(dp3681
VxPos
p3682
V-1.379948
p3683
sVyPos
p3684
V-1.975
p3685
ssVlightNumber697
p3686
(dp3687
VxPos
p3688
V-1.632037
p3689
sVyPos
p3690
V-1.025
p3691
ssVlightNumber694
p3692
(dp3693
VxPos
p3694
V-2.866981
p3695
sVyPos
p3696
V-1.975
p3697
ssVlightNumber538
p3698
(dp3699
VxPos
p3700
V-1.669487
p3701
sVyPos
p3702
V-0.975
p3703
ssVlightNumber692
p3704
(dp3705
VxPos
p3706
V-3.475
p3707
sVyPos
p3708
V-1.583125
p3709
ssVlightNumber566
p3710
(dp3711
VxPos
p3712
V-1.101092
p3713
sVyPos
p3714
V-0.975
p3715
ssVlightNumber690
p3716
(dp3717
VxPos
p3718
V-3.475
p3719
sVyPos
p3720
V0.03067362
p3721
ssVlightNumber691
p3722
(dp3723
VxPos
p3724
V-3.475
p3725
sVyPos
p3726
V-1.085581
p3727
ssVlightNumber567
p3728
(dp3729
VxPos
p3730
V-0.7600927
p3731
sVyPos
p3732
V-0.975
p3733
ssVlightNumber388
p3734
(dp3735
VxPos
p3736
V-0.475
p3737
sVyPos
p3738
V0.09653234
p3739
ssVlightNumber389
p3740
(dp3741
VxPos
p3742
V-2.475
p3743
sVyPos
p3744
V0.9498522
p3745
ssVlightNumber957
p3746
(dp3747
VxPos
p3748
V0.4090851
p3749
sVyPos
p3750
V2.025
p3751
ssVlightNumber317
p3752
(dp3753
VxPos
p3754
V-0.525
p3755
sVyPos
p3756
V0.8722478
p3757
ssVlightNumber316
p3758
(dp3759
VxPos
p3760
V-0.5249999
p3761
sVyPos
p3762
V0.1497586
p3763
ssVlightNumber315
p3764
(dp3765
VxPos
p3766
V-1.0456
p3767
sVyPos
p3768
V-0.9750001
p3769
ssVlightNumber314
p3770
(dp3771
VxPos
p3772
V-2.395959
p3773
sVyPos
p3774
V-0.9750001
p3775
ssVlightNumber313
p3776
(dp3777
VxPos
p3778
V-2.475
p3779
sVyPos
p3780
V0.5095269
p3781
ssVlightNumber312
p3782
(dp3783
VxPos
p3784
V-2.475
p3785
sVyPos
p3786
V1.188265
p3787
ssVlightNumber258
p3788
(dp3789
VxPos
p3790
V2.179602
p3791
sVyPos
p3792
V-1.975
p3793
ssVlightNumber259
p3794
(dp3795
VxPos
p3796
V-0.5249999
p3797
sVyPos
p3798
V0.03275555
p3799
ssVlightNumber256
p3800
(dp3801
VxPos
p3802
V-1.602658
p3803
sVyPos
p3804
V-0.975
p3805
ssVlightNumber257
p3806
(dp3807
VxPos
p3808
V-1.095862
p3809
sVyPos
p3810
V-0.9750001
p3811
ssVlightNumber254
p3812
(dp3813
VxPos
p3814
V-2.475
p3815
sVyPos
p3816
V-0.426108
p3817
ssVlightNumber255
p3818
(dp3819
VxPos
p3820
V-2.208679
p3821
sVyPos
p3822
V-0.975
p3823
ssVlightNumber252
p3824
(dp3825
VxPos
p3826
V-2.411029
p3827
sVyPos
p3828
V1.975
p3829
ssVlightNumber253
p3830
(dp3831
VxPos
p3832
V-2.475
p3833
sVyPos
p3834
V0.2557056
p3835
ssVlightNumber319
p3836
(dp3837
VxPos
p3838
V-1.03844
p3839
sVyPos
p3840
V1.975
p3841
ssVlightNumber251
p3842
(dp3843
VxPos
p3844
V-0.8108635
p3845
sVyPos
p3846
V1.975
p3847
ssVlightNumber528
p3848
(dp3849
VxPos
p3850
V-2.020803
p3851
sVyPos
p3852
V-0.975
p3853
ssVlightNumber529
p3854
(dp3855
VxPos
p3856
V-1.897455
p3857
sVyPos
p3858
V-0.975
p3859
ssVlightNumber953
p3860
(dp3861
VxPos
p3862
V-0.3133565
p3863
sVyPos
p3864
V2.975
p3865
ssVlightNumber520
p3866
(dp3867
VxPos
p3868
V-2.137802
p3869
sVyPos
p3870
V-0.975
p3871
ssVlightNumber521
p3872
(dp3873
VxPos
p3874
V-1.772139
p3875
sVyPos
p3876
V-0.975
p3877
ssVlightNumber522
p3878
(dp3879
VxPos
p3880
V-0.5249997
p3881
sVyPos
p3882
V-0.2011892
p3883
ssVlightNumber523
p3884
(dp3885
VxPos
p3886
V-0.5249999
p3887
sVyPos
p3888
V1.802286
p3889
ssVlightNumber524
p3890
(dp3891
VxPos
p3892
V-2.387374
p3893
sVyPos
p3894
V1.975
p3895
ssVlightNumber525
p3896
(dp3897
VxPos
p3898
V-2.475
p3899
sVyPos
p3900
V-0.4034012
p3901
ssVlightNumber526
p3902
(dp3903
VxPos
p3904
V-2.475
p3905
sVyPos
p3906
V-0.7696432
p3907
ssVlightNumber527
p3908
(dp3909
VxPos
p3910
V-2.242229
p3911
sVyPos
p3912
V-0.975
p3913
ssVlightNumber768
p3914
(dp3915
VxPos
p3916
V-3.475
p3917
sVyPos
p3918
V1.342066
p3919
ssVlightNumber769
p3920
(dp3921
VxPos
p3922
V-3.475
p3923
sVyPos
p3924
V0.8347932
p3925
ssVlightNumber884
p3926
(dp3927
VxPos
p3928
V-1.375448
p3929
sVyPos
p3930
V2.975
p3931
ssVlightNumber569
p3932
(dp3933
VxPos
p3934
V0.9447566
p3935
sVyPos
p3936
V-1.975
p3937
ssVlightNumber133
p3938
(dp3939
VxPos
p3940
V3.475
p3941
sVyPos
p3942
V-1.778039
p3943
ssVlightNumber132
p3944
(dp3945
VxPos
p3946
V-0.2859767
p3947
sVyPos
p3948
V-1.975
p3949
ssVlightNumber131
p3950
(dp3951
VxPos
p3952
V-1.006921
p3953
sVyPos
p3954
V-1.975
p3955
ssVlightNumber130
p3956
(dp3957
VxPos
p3958
V-1.588602
p3959
sVyPos
p3960
V-1.975
p3961
ssVlightNumber137
p3962
(dp3963
VxPos
p3964
V-1.279197
p3965
sVyPos
p3966
V-1.025
p3967
ssVlightNumber136
p3968
(dp3969
VxPos
p3970
V-1.174077
p3971
sVyPos
p3972
V-1.025
p3973
ssVlightNumber135
p3974
(dp3975
VxPos
p3976
V-1.09865
p3977
sVyPos
p3978
V-1.025
p3979
ssVlightNumber134
p3980
(dp3981
VxPos
p3982
V-0.9513885
p3983
sVyPos
p3984
V-1.025
p3985
ssVlightNumber591
p3986
(dp3987
VxPos
p3988
V1.747449
p3989
sVyPos
p3990
V1.975
p3991
ssVlightNumber139
p3992
(dp3993
VxPos
p3994
V-2.414679
p3995
sVyPos
p3996
V-1.975
p3997
ssVlightNumber138
p3998
(dp3999
VxPos
p4000
V-3.475
p4001
sVyPos
p4002
V-1.00857
p4003
ssVlightNumber590
p4004
(dp4005
VxPos
p4006
V0.475
p4007
sVyPos
p4008
V-0.6011122
p4009
ssVlightNumber902
p4010
(dp4011
VxPos
p4012
V-0.291451
p4013
sVyPos
p4014
V2.975
p4015
ssVlightNumber765
p4016
(dp4017
VxPos
p4018
V-2.525
p4019
sVyPos
p4020
V0.6473199
p4021
ssVlightNumber900
p4022
(dp4023
VxPos
p4024
V0.08331662
p4025
sVyPos
p4026
V2.025
p4027
ssVlightNumber926
p4028
(dp4029
VxPos
p4030
V-0.8366468
p4031
sVyPos
p4032
V2.025
p4033
ssVlightNumber760
p4034
(dp4035
VxPos
p4036
V-3.475
p4037
sVyPos
p4038
V0.3039985
p4039
ssVlightNumber906
p4040
(dp4041
VxPos
p4042
V-3.475
p4043
sVyPos
p4044
V2.064088
p4045
ssVlightNumber761
p4046
(dp4047
VxPos
p4048
V-3.475
p4049
sVyPos
p4050
V-0.06976593
p4051
ssVlightNumber1020
p4052
(dp4053
VxPos
p4054
V-0.475
p4055
sVyPos
p4056
V1.632831
p4057
ssVlightNumber907
p4058
(dp4059
VxPos
p4060
V-1.075834
p4061
sVyPos
p4062
V2.025
p4063
ssVlightNumber59
p4064
(dp4065
VxPos
p4066
V-2.475
p4067
sVyPos
p4068
V1.295649
p4069
ssVlightNumber58
p4070
(dp4071
VxPos
p4072
V-0.3683196
p4073
sVyPos
p4074
V0.9750001
p4075
ssVlightNumber55
p4076
(dp4077
VxPos
p4078
V3.475
p4079
sVyPos
p4080
V-1.908604
p4081
ssVlightNumber54
p4082
(dp4083
VxPos
p4084
V0.7011254
p4085
sVyPos
p4086
V-1.975
p4087
ssVlightNumber57
p4088
(dp4089
VxPos
p4090
V0.475
p4091
sVyPos
p4092
V-0.07075453
p4093
ssVlightNumber56
p4094
(dp4095
VxPos
p4096
V0.475
p4097
sVyPos
p4098
V-0.8023816
p4099
ssVlightNumber51
p4100
(dp4101
VxPos
p4102
V-0.5
p4103
sVyPos
p4104
V-1.014249
p4105
ssVlightNumber50
p4106
(dp4107
VxPos
p4108
V-0.475
p4109
sVyPos
p4110
V-0.2466641
p4111
ssVlightNumber53
p4112
(dp4113
VxPos
p4114
V-0.06425237
p4115
sVyPos
p4116
V-1.975
p4117
ssVlightNumber52
p4118
(dp4119
VxPos
p4120
V-0.8391988
p4121
sVyPos
p4122
V-1.975
p4123
ssVlightNumber784
p4124
(dp4125
VxPos
p4126
V-2.525
p4127
sVyPos
p4128
V1.139136
p4129
ssVlightNumber785
p4130
(dp4131
VxPos
p4132
V-2.525
p4133
sVyPos
p4134
V1.511766
p4135
ssVlightNumber786
p4136
(dp4137
VxPos
p4138
V-2.364461
p4139
sVyPos
p4140
V2.975
p4141
ssVlightNumber568
p4142
(dp4143
VxPos
p4144
V-0.5650938
p4145
sVyPos
p4146
V-0.975
p4147
ssVlightNumber780
p4148
(dp4149
VxPos
p4150
V-3.475
p4151
sVyPos
p4152
V0.7846705
p4153
ssVlightNumber781
p4154
(dp4155
VxPos
p4156
V-3.475
p4157
sVyPos
p4158
V0.04761052
p4159
ssVlightNumber629
p4160
(dp4161
VxPos
p4162
V0.7312093
p4163
sVyPos
p4164
V-1.025
p4165
ssVlightNumber628
p4166
(dp4167
VxPos
p4168
V0.812822
p4169
sVyPos
p4170
V-1.975
p4171
ssVlightNumber627
p4172
(dp4173
VxPos
p4174
V-0.285138
p4175
sVyPos
p4176
V-1.975
p4177
ssVlightNumber626
p4178
(dp4179
VxPos
p4180
V-0.5617024
p4181
sVyPos
p4182
V-1.975
p4183
ssVlightNumber625
p4184
(dp4185
VxPos
p4186
V-0.8352047
p4187
sVyPos
p4188
V-1.975
p4189
ssVlightNumber624
p4190
(dp4191
VxPos
p4192
V-1.907921
p4193
sVyPos
p4194
V-1.975
p4195
ssVlightNumber623
p4196
(dp4197
VxPos
p4198
V-1.886343
p4199
sVyPos
p4200
V-1.025
p4201
ssVlightNumber622
p4202
(dp4203
VxPos
p4204
V-0.7713373
p4205
sVyPos
p4206
V-1.025
p4207
ssVlightNumber621
p4208
(dp4209
VxPos
p4210
V-0.1718346
p4211
sVyPos
p4212
V0.9750001
p4213
ssVlightNumber620
p4214
(dp4215
VxPos
p4216
V0.475
p4217
sVyPos
p4218
V-0.6487857
p4219
ssVlightNumber146
p4220
(dp4221
VxPos
p4222
V-1.22907
p4223
sVyPos
p4224
V-1.025
p4225
ssVlightNumber147
p4226
(dp4227
VxPos
p4228
V-1.369035
p4229
sVyPos
p4230
V-1.025
p4231
ssVlightNumber144
p4232
(dp4233
VxPos
p4234
V-1.049124
p4235
sVyPos
p4236
V-1.025
p4237
ssVlightNumber145
p4238
(dp4239
VxPos
p4240
V-1.155515
p4241
sVyPos
p4242
V-1.025
p4243
ssVlightNumber142
p4244
(dp4245
VxPos
p4246
V0.03432679
p4247
sVyPos
p4248
V-1.975
p4249
ssVlightNumber143
p4250
(dp4251
VxPos
p4252
V1.831265
p4253
sVyPos
p4254
V-1.025
p4255
ssVlightNumber140
p4256
(dp4257
VxPos
p4258
V-1.456531
p4259
sVyPos
p4260
V-1.975
p4261
ssVlightNumber141
p4262
(dp4263
VxPos
p4264
V-0.8945457
p4265
sVyPos
p4266
V-1.975
p4267
ssVlightNumber148
p4268
(dp4269
VxPos
p4270
V-3.475
p4271
sVyPos
p4272
V-1.410595
p4273
ssVlightNumber149
p4274
(dp4275
VxPos
p4276
V-2.067156
p4277
sVyPos
p4278
V-1.975
p4279
ssVlightNumber28
p4280
(dp4281
VxPos
p4282
V1.792451
p4283
sVyPos
p4284
V0.975
p4285
ssVlightNumber29
p4286
(dp4287
VxPos
p4288
V0.4207282
p4289
sVyPos
p4290
V0.975
p4291
ssVlightNumber754
p4292
(dp4293
VxPos
p4294
V-2.525
p4295
sVyPos
p4296
V-0.1520625
p4297
ssVlightNumber932
p4298
(dp4299
VxPos
p4300
V0.374258
p4301
sVyPos
p4302
V2.975
p4303
ssVlightNumber20
p4304
(dp4305
VxPos
p4306
V-0.07720372
p4307
sVyPos
p4308
V0.975
p4309
ssVlightNumber21
p4310
(dp4311
VxPos
p4312
V-0.475
p4313
sVyPos
p4314
V0.6687721
p4315
ssVlightNumber22
p4316
(dp4317
VxPos
p4318
V-0.475
p4319
sVyPos
p4320
V0.2121536
p4321
ssVlightNumber23
p4322
(dp4323
VxPos
p4324
V-0.475
p4325
sVyPos
p4326
V-0.1245955
p4327
ssVlightNumber24
p4328
(dp4329
VxPos
p4330
V-0.5761479
p4331
sVyPos
p4332
V-0.9750001
p4333
ssVlightNumber25
p4334
(dp4335
VxPos
p4336
V0.2821213
p4337
sVyPos
p4338
V-1.975
p4339
ssVlightNumber26
p4340
(dp4341
VxPos
p4342
V0.475
p4343
sVyPos
p4344
V-0.5096047
p4345
ssVlightNumber27
p4346
(dp4347
VxPos
p4348
V0.475
p4349
sVyPos
p4350
V-0.1127744
p4351
ssVlightNumber712
p4352
(dp4353
VxPos
p4354
V-3.475
p4355
sVyPos
p4356
V-1.522592
p4357
ssVlightNumber751
p4358
(dp4359
VxPos
p4360
V-3.475
p4361
sVyPos
p4362
V-0.2603557
p4363
ssVlightNumber937
p4364
(dp4365
VxPos
p4366
V0.130854
p4367
sVyPos
p4368
V2.025
p4369
ssVlightNumber750
p4370
(dp4371
VxPos
p4372
V-3.475
p4373
sVyPos
p4374
V0.05301102
p4375
ssVlightNumber936
p4376
(dp4377
VxPos
p4378
V-0.3634651
p4379
sVyPos
p4380
V2.025
p4381
ssVlightNumber858
p4382
(dp4383
VxPos
p4384
V-3.475
p4385
sVyPos
p4386
V1.771974
p4387
ssVlightNumber859
p4388
(dp4389
VxPos
p4390
V-2.37798
p4391
sVyPos
p4392
V2.025
p4393
ssVlightNumber913
p4394
(dp4395
VxPos
p4396
V-0.3606274
p4397
sVyPos
p4398
V2.975
p4399
ssVlightNumber912
p4400
(dp4401
VxPos
p4402
V-0.07960999
p4403
sVyPos
p4404
V2.975
p4405
ssVlightNumber915
p4406
(dp4407
VxPos
p4408
V-1.659476
p4409
sVyPos
p4410
V2.975
p4411
ssVlightNumber914
p4412
(dp4413
VxPos
p4414
V-0.6353295
p4415
sVyPos
p4416
V2.975
p4417
ssVlightNumber917
p4418
(dp4419
VxPos
p4420
V-0.5799647
p4421
sVyPos
p4422
V2.025
p4423
ssVlightNumber916
p4424
(dp4425
VxPos
p4426
V-1.733518
p4427
sVyPos
p4428
V2.025
p4429
ssVlightNumber850
p4430
(dp4431
VxPos
p4432
V-2.384283
p4433
sVyPos
p4434
V2.025
p4435
ssVlightNumber851
p4436
(dp4437
VxPos
p4438
V-1.824113
p4439
sVyPos
p4440
V2.025
p4441
ssVlightNumber852
p4442
(dp4443
VxPos
p4444
V1.950928
p4445
sVyPos
p4446
V2.025
p4447
ssVlightNumber853
p4448
(dp4449
VxPos
p4450
V-1.758406
p4451
sVyPos
p4452
V2.975
p4453
ssVlightNumber854
p4454
(dp4455
VxPos
p4456
V-2.185504
p4457
sVyPos
p4458
V2.975
p4459
ssVlightNumber855
p4460
(dp4461
VxPos
p4462
V-2.382646
p4463
sVyPos
p4464
V2.975
p4465
ssVlightNumber856
p4466
(dp4467
VxPos
p4468
V-2.679097
p4469
sVyPos
p4470
V2.975
p4471
ssVlightNumber857
p4472
(dp4473
VxPos
p4474
V-3.475
p4475
sVyPos
p4476
V2.695711
p4477
ssVlightNumber490
p4478
(dp4479
VxPos
p4480
V-2.204877
p4481
sVyPos
p4482
V-0.975
p4483
ssVlightNumber491
p4484
(dp4485
VxPos
p4486
V-2.118165
p4487
sVyPos
p4488
V-0.975
p4489
ssVlightNumber492
p4490
(dp4491
VxPos
p4492
V-1.479338
p4493
sVyPos
p4494
V-0.975
p4495
ssVlightNumber493
p4496
(dp4497
VxPos
p4498
V-0.525
p4499
sVyPos
p4500
V0.07493597
p4501
ssVlightNumber494
p4502
(dp4503
VxPos
p4504
V-0.9659551
p4505
sVyPos
p4506
V1.975
p4507
ssVlightNumber495
p4508
(dp4509
VxPos
p4510
V-2.475
p4511
sVyPos
p4512
V0.1673865
p4513
ssVlightNumber496
p4514
(dp4515
VxPos
p4516
V-2.475
p4517
sVyPos
p4518
V-0.671335
p4519
ssVlightNumber497
p4520
(dp4521
VxPos
p4522
V-2.475
p4523
sVyPos
p4524
V-0.8577305
p4525
ssVlightNumber498
p4526
(dp4527
VxPos
p4528
V-2.399063
p4529
sVyPos
p4530
V-0.975
p4531
ssVlightNumber499
p4532
(dp4533
VxPos
p4534
V-2.281906
p4535
sVyPos
p4536
V-0.975
p4537
ssVlightNumber711
p4538
(dp4539
VxPos
p4540
V-3.475
p4541
sVyPos
p4542
V-1.225443
p4543
ssVlightNumber710
p4544
(dp4545
VxPos
p4546
V-3.475
p4547
sVyPos
p4548
V-0.881968
p4549
ssVlightNumber717
p4550
(dp4551
VxPos
p4552
V-2.525
p4553
sVyPos
p4554
V-0.7001911
p4555
ssVlightNumber716
p4556
(dp4557
VxPos
p4558
V3.474999
p4559
sVyPos
p4560
V-1.098994
p4561
ssVlightNumber715
p4562
(dp4563
VxPos
p4564
V-1.892258
p4565
sVyPos
p4566
V-1.975
p4567
ssVlightNumber693
p4568
(dp4569
VxPos
p4570
V-3.269502
p4571
sVyPos
p4572
V-1.975
p4573
ssVlightNumber988
p4574
(dp4575
VxPos
p4576
V1.475
p4577
sVyPos
p4578
V1.859921
p4579
ssVlightNumber831
p4580
(dp4581
VxPos
p4582
V-2.525
p4583
sVyPos
p4584
V1.648645
p4585
ssVlightNumber759
p4586
(dp4587
VxPos
p4588
V-3.475
p4589
sVyPos
p4590
V0.5994983
p4591
ssVlightNumber982
p4592
(dp4593
VxPos
p4594
V-0.02286261
p4595
sVyPos
p4596
V2.975
p4597
ssVlightNumber983
p4598
(dp4599
VxPos
p4600
V-1.685271
p4601
sVyPos
p4602
V2.975
p4603
ssVlightNumber980
p4604
(dp4605
VxPos
p4606
V1.254689
p4607
sVyPos
p4608
V2.975
p4609
ssVlightNumber758
p4610
(dp4611
VxPos
p4612
V-3.475
p4613
sVyPos
p4614
V1.366389
p4615
ssVlightNumber986
p4616
(dp4617
VxPos
p4618
V0.517467
p4619
sVyPos
p4620
V2
p4621
ssVlightNumber987
p4622
(dp4623
VxPos
p4624
V2.111033
p4625
sVyPos
p4626
V0.0250001
p4627
ssVlightNumber984
p4628
(dp4629
VxPos
p4630
V0.128723
p4631
sVyPos
p4632
V2.025
p4633
ssVlightNumber985
p4634
(dp4635
VxPos
p4636
V0.4308189
p4637
sVyPos
p4638
V2.025
p4639
ssVlightNumber945
p4640
(dp4641
VxPos
p4642
V-0.8652312
p4643
sVyPos
p4644
V2.025
p4645
ssVlightNumber888
p4646
(dp4647
VxPos
p4648
V-1.479231
p4649
sVyPos
p4650
V2.025
p4651
ssVlightNumber359
p4652
(dp4653
VxPos
p4654
V-1.510133
p4655
sVyPos
p4656
V1.975
p4657
ssVlightNumber358
p4658
(dp4659
VxPos
p4660
V-0.525
p4661
sVyPos
p4662
V0.3380264
p4663
ssVlightNumber353
p4664
(dp4665
VxPos
p4666
V-1.12369
p4667
sVyPos
p4668
V-0.9749999
p4669
ssVlightNumber352
p4670
(dp4671
VxPos
p4672
V-2.288876
p4673
sVyPos
p4674
V-0.975
p4675
ssVlightNumber351
p4676
(dp4677
VxPos
p4678
V-2.475
p4679
sVyPos
p4680
V0.1314046
p4681
ssVlightNumber350
p4682
(dp4683
VxPos
p4684
V-2.475
p4685
sVyPos
p4686
V1.492256
p4687
ssVlightNumber357
p4688
(dp4689
VxPos
p4690
V-0.525
p4691
sVyPos
p4692
V-0.04702115
p4693
ssVlightNumber356
p4694
(dp4695
VxPos
p4696
V-0.525
p4697
sVyPos
p4698
V-0.1514524
p4699
ssVlightNumber355
p4700
(dp4701
VxPos
p4702
V-0.525
p4703
sVyPos
p4704
V-0.2844498
p4705
ssVlightNumber354
p4706
(dp4707
VxPos
p4708
V-0.5050201
p4709
sVyPos
p4710
V-0.975
p4711
ssVlightNumber212
p4712
(dp4713
VxPos
p4714
V0.1430898
p4715
sVyPos
p4716
V0.9749998
p4717
ssVlightNumber213
p4718
(dp4719
VxPos
p4720
V-1.454037
p4721
sVyPos
p4722
V1.975
p4723
ssVlightNumber210
p4724
(dp4725
VxPos
p4726
V0.4749999
p4727
sVyPos
p4728
V-0.9054961
p4729
ssVlightNumber211
p4730
(dp4731
VxPos
p4732
V0.475
p4733
sVyPos
p4734
V-0.2386007
p4735
ssVlightNumber216
p4736
(dp4737
VxPos
p4738
V-0.7709835
p4739
sVyPos
p4740
V-0.975
p4741
ssVlightNumber217
p4742
(dp4743
VxPos
p4744
V-0.6499468
p4745
sVyPos
p4746
V-0.975
p4747
ssVlightNumber214
p4748
(dp4749
VxPos
p4750
V-2.475
p4751
sVyPos
p4752
V0.4879244
p4753
ssVlightNumber215
p4754
(dp4755
VxPos
p4756
V-2.475
p4757
sVyPos
p4758
V-0.924862
p4759
ssVlightNumber564
p4760
(dp4761
VxPos
p4762
V-2.475
p4763
sVyPos
p4764
V0.913279
p4765
ssVlightNumber565
p4766
(dp4767
VxPos
p4768
V-2.475
p4769
sVyPos
p4770
V-0.526667
p4771
ssVlightNumber218
p4772
(dp4773
VxPos
p4774
V-0.5609651
p4775
sVyPos
p4776
V-0.975
p4777
ssVlightNumber219
p4778
(dp4779
VxPos
p4780
V1.477355
p4781
sVyPos
p4782
V-1.975
p4783
ssVlightNumber560
p4784
(dp4785
VxPos
p4786
V3.475
p4787
sVyPos
p4788
V-1.683543
p4789
ssVlightNumber561
p4790
(dp4791
VxPos
p4792
V0.4749999
p4793
sVyPos
p4794
V-0.130825
p4795
ssVlightNumber562
p4796
(dp4797
VxPos
p4798
V-0.525
p4799
sVyPos
p4800
V-0.1854833
p4801
ssVlightNumber563
p4802
(dp4803
VxPos
p4804
V-1.22291
p4805
sVyPos
p4806
V1.975
p4807
ssVlightNumber407
p4808
(dp4809
VxPos
p4810
V-0.5967751
p4811
sVyPos
p4812
V1.975
p4813
ssVlightNumber406
p4814
(dp4815
VxPos
p4816
V1.524835
p4817
sVyPos
p4818
V1.8
p4819
ssVlightNumber405
p4820
(dp4821
VxPos
p4822
V0.475
p4823
sVyPos
p4824
V-0.602213
p4825
ssVlightNumber404
p4826
(dp4827
VxPos
p4828
V1.826692
p4829
sVyPos
p4830
V-1.975
p4831
ssVlightNumber403
p4832
(dp4833
VxPos
p4834
V-0.5664969
p4835
sVyPos
p4836
V-0.975
p4837
ssVlightNumber402
p4838
(dp4839
VxPos
p4840
V-0.6090702
p4841
sVyPos
p4842
V-0.9750001
p4843
ssVlightNumber401
p4844
(dp4845
VxPos
p4846
V-0.6689833
p4847
sVyPos
p4848
V-0.975
p4849
ssVlightNumber400
p4850
(dp4851
VxPos
p4852
V-1.324027
p4853
sVyPos
p4854
V-0.975
p4855
ssVlightNumber766
p4856
(dp4857
VxPos
p4858
V-2.525
p4859
sVyPos
p4860
V1.137372
p4861
ssVlightNumber767
p4862
(dp4863
VxPos
p4864
V-2.875868
p4865
sVyPos
p4866
V2.975
p4867
ssVlightNumber764
p4868
(dp4869
VxPos
p4870
V-2.525
p4871
sVyPos
p4872
V0.2923409
p4873
ssVlightNumber534
p4874
(dp4875
VxPos
p4876
V-2.475
p4877
sVyPos
p4878
V1.676608
p4879
ssVlightNumber762
p4880
(dp4881
VxPos
p4882
V-3.340108
p4883
sVyPos
p4884
V-1.975
p4885
ssVlightNumber763
p4886
(dp4887
VxPos
p4888
V-2.525
p4889
sVyPos
p4890
V-0.3878291
p4891
ssVlightNumber409
p4892
(dp4893
VxPos
p4894
V-2.475
p4895
sVyPos
p4896
V-0.2953249
p4897
ssVlightNumber408
p4898
(dp4899
VxPos
p4900
V-2.475
p4901
sVyPos
p4902
V1.648973
p4903
ssVlightNumber970
p4904
(dp4905
VxPos
p4906
V1.540764
p4907
sVyPos
p4908
V2.975
p4909
ssVlightNumber328
p4910
(dp4911
VxPos
p4912
V-0.525
p4913
sVyPos
p4914
V1.318429
p4915
ssVlightNumber329
p4916
(dp4917
VxPos
p4918
V-1.011549
p4919
sVyPos
p4920
V1.975
p4921
ssVlightNumber326
p4922
(dp4923
VxPos
p4924
V-0.525
p4925
sVyPos
p4926
V0.233356
p4927
ssVlightNumber327
p4928
(dp4929
VxPos
p4930
V-0.5249999
p4931
sVyPos
p4932
V0.7374313
p4933
ssVlightNumber324
p4934
(dp4935
VxPos
p4936
V-1.750251
p4937
sVyPos
p4938
V-0.975
p4939
ssVlightNumber325
p4940
(dp4941
VxPos
p4942
V-0.5950701
p4943
sVyPos
p4944
V-0.975
p4945
ssVlightNumber322
p4946
(dp4947
VxPos
p4948
V-2.475
p4949
sVyPos
p4950
V0.7448292
p4951
ssVlightNumber323
p4952
(dp4953
VxPos
p4954
V-2.475
p4955
sVyPos
p4956
V-0.1593823
p4957
ssVlightNumber320
p4958
(dp4959
VxPos
p4960
V-1.770516
p4961
sVyPos
p4962
V1.975
p4963
ssVlightNumber321
p4964
(dp4965
VxPos
p4966
V-2.475
p4967
sVyPos
p4968
V1.576237
p4969
ssVlightNumber11
p4970
(dp4971
VxPos
p4972
V-0.2965696
p4973
sVyPos
p4974
V0.975
p4975
ssVlightNumber10
p4976
(dp4977
VxPos
p4978
V0.0499245
p4979
sVyPos
p4980
V0.975
p4981
ssVlightNumber13
p4982
(dp4983
VxPos
p4984
V-0.475
p4985
sVyPos
p4986
V0.2909637
p4987
ssVlightNumber12
p4988
(dp4989
VxPos
p4990
V-0.475
p4991
sVyPos
p4992
V0.6405371
p4993
ssVlightNumber15
p4994
(dp4995
VxPos
p4996
V-0.05093619
p4997
sVyPos
p4998
V-1.975
p4999
ssVlightNumber14
p5000
(dp5001
VxPos
p5002
V-0.475
p5003
sVyPos
p5004
V-0.214289
p5005
ssVlightNumber17
p5006
(dp5007
VxPos
p5008
V2.475
p5009
sVyPos
p5010
V-0.4778389
p5011
ssVlightNumber16
p5012
(dp5013
VxPos
p5014
V0.475
p5015
sVyPos
p5016
V-0.3544593
p5017
ssVlightNumber19
p5018
(dp5019
VxPos
p5020
V0.4728448
p5021
sVyPos
p5022
V0.975
p5023
ssVlightNumber18
p5024
(dp5025
VxPos
p5026
V1.974406
p5027
sVyPos
p5028
V0.975
p5029
ssVlightNumber663
p5030
(dp5031
VxPos
p5032
V-3.2022
p5033
sVyPos
p5034
V-1.975
p5035
ssVlightNumber662
p5036
(dp5037
VxPos
p5038
V-3.475
p5039
sVyPos
p5040
V-0.9359729
p5041
ssVlightNumber108
p5042
(dp5043
VxPos
p5044
V-1.077752
p5045
sVyPos
p5046
V-1.025
p5047
ssVlightNumber109
p5048
(dp5049
VxPos
p5050
V-3.475
p5051
sVyPos
p5052
V-1.308
p5053
ssVlightNumber667
p5054
(dp5055
VxPos
p5056
V0.2050961
p5057
sVyPos
p5058
V-1.975
p5059
ssVlightNumber666
p5060
(dp5061
VxPos
p5062
V-1.483606
p5063
sVyPos
p5064
V-1.975
p5065
ssVlightNumber665
p5066
(dp5067
VxPos
p5068
V-1.836291
p5069
sVyPos
p5070
V-1.975
p5071
ssVlightNumber664
p5072
(dp5073
VxPos
p5074
V-2.156684
p5075
sVyPos
p5076
V-1.975
p5077
ssVlightNumber102
p5078
(dp5079
VxPos
p5080
V-0.598024
p5081
sVyPos
p5082
V-1.975
p5083
ssVlightNumber103
p5084
(dp5085
VxPos
p5086
V0.2405711
p5087
sVyPos
p5088
V-1.975
p5089
ssVlightNumber100
p5090
(dp5091
VxPos
p5092
V-2.196281
p5093
sVyPos
p5094
V-1.975
p5095
ssVlightNumber101
p5096
(dp5097
VxPos
p5098
V-1.148913
p5099
sVyPos
p5100
V-1.975
p5101
ssVlightNumber106
p5102
(dp5103
VxPos
p5104
V-0.8554005
p5105
sVyPos
p5106
V-1.025
p5107
ssVlightNumber107
p5108
(dp5109
VxPos
p5110
V-0.9401646
p5111
sVyPos
p5112
V-1.025
p5113
ssVlightNumber104
p5114
(dp5115
VxPos
p5116
V3.475
p5117
sVyPos
p5118
V-1.2056
p5119
ssVlightNumber105
p5120
(dp5121
VxPos
p5122
V-0.7279984
p5123
sVyPos
p5124
V-1.025
p5125
ssVlightNumber366
p5126
(dp5127
VxPos
p5128
V-0.523392
p5129
sVyPos
p5130
V-0.4
p5131
ssVlightNumber778
p5132
(dp5133
VxPos
p5134
V-3.475
p5135
sVyPos
p5136
V1.465744
p5137
ssVlightNumber818
p5138
(dp5139
VxPos
p5140
V-3.475
p5141
sVyPos
p5142
V2.358664
p5143
ssVlightNumber819
p5144
(dp5145
VxPos
p5146
V-3.475
p5147
sVyPos
p5148
V2.049599
p5149
ssVlightNumber814
p5150
(dp5151
VxPos
p5152
V-1.348692
p5153
sVyPos
p5154
V2.975
p5155
ssVlightNumber815
p5156
(dp5157
VxPos
p5158
V-2.59961
p5159
sVyPos
p5160
V2.975
p5161
ssVlightNumber816
p5162
(dp5163
VxPos
p5164
V-3.11989
p5165
sVyPos
p5166
V2.975
p5167
ssVlightNumber817
p5168
(dp5169
VxPos
p5170
V-3.475
p5171
sVyPos
p5172
V2.726357
p5173
ssVlightNumber810
p5174
(dp5175
VxPos
p5176
V-3.475
p5177
sVyPos
p5178
V1.266957
p5179
ssVlightNumber811
p5180
(dp5181
VxPos
p5182
V-2.637281
p5183
sVyPos
p5184
V-1.975
p5185
ssVlightNumber812
p5186
(dp5187
VxPos
p5188
V-2.525
p5189
sVyPos
p5190
V1.589522
p5191
ssVlightNumber813
p5192
(dp5193
VxPos
p5194
V-2.395771
p5195
sVyPos
p5196
V2.025
p5197
ssVlightNumber599
p5198
(dp5199
VxPos
p5200
V3.475
p5201
sVyPos
p5202
V-1.725044
p5203
ssVlightNumber367
p5204
(dp5205
VxPos
p5206
V-0.525
p5207
sVyPos
p5208
V-0.3450199
p5209
ssVlightNumber616
p5210
(dp5211
VxPos
p5212
V-0.3811268
p5213
sVyPos
p5214
V-1.975
p5215
ssVlightNumber617
p5216
(dp5217
VxPos
p5218
V-0.1109356
p5219
sVyPos
p5220
V-1.975
p5221
ssVlightNumber614
p5222
(dp5223
VxPos
p5224
V-3.475
p5225
sVyPos
p5226
V-1.864126
p5227
ssVlightNumber615
p5228
(dp5229
VxPos
p5230
V-0.7503453
p5231
sVyPos
p5232
V-1.975
p5233
ssVlightNumber612
p5234
(dp5235
VxPos
p5236
V-0.5279836
p5237
sVyPos
p5238
V-1.025
p5239
ssVlightNumber311
p5240
(dp5241
VxPos
p5242
V-2.46068
p5243
sVyPos
p5244
V1.975
p5245
ssVlightNumber610
p5246
(dp5247
VxPos
p5248
V0.4750001
p5249
sVyPos
p5250
V-0.8896306
p5251
ssVlightNumber611
p5252
(dp5253
VxPos
p5254
V0.3647502
p5255
sVyPos
p5256
V0.975
p5257
ssVlightNumber310
p5258
(dp5259
VxPos
p5260
V-1.711859
p5261
sVyPos
p5262
V1.975
p5263
ssVlightNumber791
p5264
(dp5265
VxPos
p5266
V-3.475
p5267
sVyPos
p5268
V-0.3841373
p5269
ssVlightNumber618
p5270
(dp5271
VxPos
p5272
V0.4960795
p5273
sVyPos
p5274
V-1.975
p5275
ssVlightNumber619
p5276
(dp5277
VxPos
p5278
V3.475
p5279
sVyPos
p5280
V-0.8406839
p5281
ssVlightNumber191
p5282
(dp5283
VxPos
p5284
V2.068983
p5285
sVyPos
p5286
V-1.975
p5287
ssVlightNumber190
p5288
(dp5289
VxPos
p5290
V0.3022645
p5291
sVyPos
p5292
V-1.975
p5293
ssVlightNumber193
p5294
(dp5295
VxPos
p5296
V0.4750001
p5297
sVyPos
p5298
V-0.2326205
p5299
ssVlightNumber192
p5300
(dp5301
VxPos
p5302
V0.475
p5303
sVyPos
p5304
V-0.866646
p5305
ssVlightNumber195
p5306
(dp5307
VxPos
p5308
V-2.257708
p5309
sVyPos
p5310
V1.975
p5311
ssVlightNumber194
p5312
(dp5313
VxPos
p5314
V-0.08350649
p5315
sVyPos
p5316
V0.9750001
p5317
ssVlightNumber197
p5318
(dp5319
VxPos
p5320
V-0.6596628
p5321
sVyPos
p5322
V-1.975
p5323
ssVlightNumber196
p5324
(dp5325
VxPos
p5326
V-2.718047
p5327
sVyPos
p5328
V-1.975
p5329
ssVlightNumber199
p5330
(dp5331
VxPos
p5332
V0.8188431
p5333
sVyPos
p5334
V-1.975
p5335
ssVlightNumber198
p5336
(dp5337
VxPos
p5338
V0.04603794
p5339
sVyPos
p5340
V-1.975
p5341
ssVlightNumber399
p5342
(dp5343
VxPos
p5344
V-2.475
p5345
sVyPos
p5346
V0.2252619
p5347
ssVlightNumber398
p5348
(dp5349
VxPos
p5350
V-1.747826
p5351
sVyPos
p5352
V1.975
p5353
ssVlightNumber397
p5354
(dp5355
VxPos
p5356
V-0.0324769
p5357
sVyPos
p5358
V0.9750001
p5359
ssVlightNumber396
p5360
(dp5361
VxPos
p5362
V0.475
p5363
sVyPos
p5364
V-0.1176729
p5365
ssVlightNumber395
p5366
(dp5367
VxPos
p5368
V0.475
p5369
sVyPos
p5370
V-0.8557622
p5371
ssVlightNumber394
p5372
(dp5373
VxPos
p5374
V1.172477
p5375
sVyPos
p5376
V-1.975
p5377
ssVlightNumber393
p5378
(dp5379
VxPos
p5380
V-0.0096187
p5381
sVyPos
p5382
V-1.975
p5383
ssVlightNumber392
p5384
(dp5385
VxPos
p5386
V-0.7059438
p5387
sVyPos
p5388
V-1.975
p5389
ssVlightNumber391
p5390
(dp5391
VxPos
p5392
V-0.5
p5393
sVyPos
p5394
V-0.9962798
p5395
ssVlightNumber390
p5396
(dp5397
VxPos
p5398
V-2.475
p5399
sVyPos
p5400
V-0.7816815
p5401
ssVlightNumber968
p5402
(dp5403
VxPos
p5404
V1.982471
p5405
sVyPos
p5406
V1.025
p5407
ssVlightNumber969
p5408
(dp5409
VxPos
p5410
V3.475
p5411
sVyPos
p5412
V2.186746
p5413
ssVlightNumber979
p5414
(dp5415
VxPos
p5416
V3.475
p5417
sVyPos
p5418
V2.713368
p5419
ssVlightNumber250
p5420
(dp5421
VxPos
p5422
V-0.525
p5423
sVyPos
p5424
V0.2685771
p5425
ssVlightNumber960
p5426
(dp5427
VxPos
p5428
V1.996165
p5429
sVyPos
p5430
V2.975
p5431
ssVlightNumber961
p5432
(dp5433
VxPos
p5434
V0.8127058
p5435
sVyPos
p5436
V2.975
p5437
ssVlightNumber962
p5438
(dp5439
VxPos
p5440
V0.24755
p5441
sVyPos
p5442
V2.975
p5443
ssVlightNumber318
p5444
(dp5445
VxPos
p5446
V-0.5249999
p5447
sVyPos
p5448
V1.510274
p5449
ssVlightNumber964
p5450
(dp5451
VxPos
p5452
V-3.475
p5453
sVyPos
p5454
V2.40767
p5455
ssVlightNumber799
p5456
(dp5457
VxPos
p5458
V-3.475
p5459
sVyPos
p5460
V1.579593
p5461
ssVlightNumber966
p5462
(dp5463
VxPos
p5464
V0.4071789
p5465
sVyPos
p5466
V2.025
p5467
ssVlightNumber967
p5468
(dp5469
VxPos
p5470
V0.4849818
p5471
sVyPos
p5472
V2.025
p5473
ssVlightNumber918
p5474
(dp5475
VxPos
p5476
V-0.1638336
p5477
sVyPos
p5478
V2.025
p5479
ssVlightNumber449
p5480
(dp5481
VxPos
p5482
V-2.099213
p5483
sVyPos
p5484
V-0.975
p5485
ssVlightNumber448
p5486
(dp5487
VxPos
p5488
V-2.475
p5489
sVyPos
p5490
V-0.6784962
p5491
ssVlightNumber443
p5492
(dp5493
VxPos
p5494
V-1.433592
p5495
sVyPos
p5496
V-0.975
p5497
ssVlightNumber442
p5498
(dp5499
VxPos
p5500
V-1.620095
p5501
sVyPos
p5502
V-0.975
p5503
ssVlightNumber441
p5504
(dp5505
VxPos
p5506
V-1.67317
p5507
sVyPos
p5508
V-0.9750001
p5509
ssVlightNumber440
p5510
(dp5511
VxPos
p5512
V-1.736367
p5513
sVyPos
p5514
V-0.9750001
p5515
ssVlightNumber447
p5516
(dp5517
VxPos
p5518
V-2.475
p5519
sVyPos
p5520
V0.04159153
p5521
ssVlightNumber446
p5522
(dp5523
VxPos
p5524
V-1.768599
p5525
sVyPos
p5526
V1.975
p5527
ssVlightNumber445
p5528
(dp5529
VxPos
p5530
V-0.525
p5531
sVyPos
p5532
V0.7537606
p5533
ssVlightNumber444
p5534
(dp5535
VxPos
p5536
V0.475
p5537
sVyPos
p5538
V-0.2382788
p5539
ssVlightNumber722
p5540
(dp5541
VxPos
p5542
V-3.475
p5543
sVyPos
p5544
V-1.318245
p5545
ssVlightNumber723
p5546
(dp5547
VxPos
p5548
V-3.224519
p5549
sVyPos
p5550
V-1.975
p5551
ssVlightNumber720
p5552
(dp5553
VxPos
p5554
V-3.475
p5555
sVyPos
p5556
V-0.6744798
p5557
ssVlightNumber721
p5558
(dp5559
VxPos
p5560
V-3.475
p5561
sVyPos
p5562
V-0.9727908
p5563
ssVlightNumber689
p5564
(dp5565
VxPos
p5566
V-2.525
p5567
sVyPos
p5568
V-0.5727435
p5569
ssVlightNumber688
p5570
(dp5571
VxPos
p5572
V-2.199198
p5573
sVyPos
p5574
V-1.025
p5575
ssVlightNumber724
p5576
(dp5577
VxPos
p5578
V-2.451037
p5579
sVyPos
p5580
V-1.975
p5581
ssVlightNumber725
p5582
(dp5583
VxPos
p5584
V-0.6992066
p5585
sVyPos
p5586
V-1.975
p5587
ssVlightNumber685
p5588
(dp5589
VxPos
p5590
V-2.304031
p5591
sVyPos
p5592
V-1.975
p5593
ssVlightNumber684
p5594
(dp5595
VxPos
p5596
V-2.626742
p5597
sVyPos
p5598
V-1.975
p5599
ssVlightNumber687
p5600
(dp5601
VxPos
p5602
V0.7987242
p5603
sVyPos
p5604
V-1.025
p5605
ssVlightNumber686
p5606
(dp5607
VxPos
p5608
V-1.641899
p5609
sVyPos
p5610
V-1.975
p5611
ssVlightNumber681
p5612
(dp5613
VxPos
p5614
V-3.475
p5615
sVyPos
p5616
V-0.6979271
p5617
ssVlightNumber680
p5618
(dp5619
VxPos
p5620
V-2.510107
p5621
sVyPos
p5622
V-1
p5623
ssVlightNumber683
p5624
(dp5625
VxPos
p5626
V-3.110453
p5627
sVyPos
p5628
V-1.975
p5629
ssVlightNumber682
p5630
(dp5631
VxPos
p5632
V-3.475
p5633
sVyPos
p5634
V-1.488463
p5635
ssVlightNumber885
p5636
(dp5637
VxPos
p5638
V-1.655384
p5639
sVyPos
p5640
V2.975
p5641
ssVlightNumber362
p5642
(dp5643
VxPos
p5644
V-1.36691
p5645
sVyPos
p5646
V-0.975
p5647
ssVlightNumber363
p5648
(dp5649
VxPos
p5650
V-0.7568601
p5651
sVyPos
p5652
V-0.9750001
p5653
ssVlightNumber360
p5654
(dp5655
VxPos
p5656
V-2.475
p5657
sVyPos
p5658
V0.8831537
p5659
ssVlightNumber361
p5660
(dp5661
VxPos
p5662
V-2.475
p5663
sVyPos
p5664
V-0.4491806
p5665
ssVlightNumber249
p5666
(dp5667
VxPos
p5668
V0.475
p5669
sVyPos
p5670
V-0.4520143
p5671
ssVlightNumber248
p5672
(dp5673
VxPos
p5674
V-0.8103433
p5675
sVyPos
p5676
V-0.975
p5677
ssVlightNumber364
p5678
(dp5679
VxPos
p5680
V0.1499697
p5681
sVyPos
p5682
V-1.975
p5683
ssVlightNumber365
p5684
(dp5685
VxPos
p5686
V0.475
p5687
sVyPos
p5688
V-0.9590246
p5689
ssVlightNumber245
p5690
(dp5691
VxPos
p5692
V-2.113654
p5693
sVyPos
p5694
V-0.975
p5695
ssVlightNumber244
p5696
(dp5697
VxPos
p5698
V-2.475
p5699
sVyPos
p5700
V-0.4543778
p5701
ssVlightNumber247
p5702
(dp5703
VxPos
p5704
V-1.301773
p5705
sVyPos
p5706
V-0.975
p5707
ssVlightNumber246
p5708
(dp5709
VxPos
p5710
V-1.596378
p5711
sVyPos
p5712
V-0.975
p5713
ssVlightNumber241
p5714
(dp5715
VxPos
p5716
V-0.5249999
p5717
sVyPos
p5718
V1.26223
p5719
ssVlightNumber240
p5720
(dp5721
VxPos
p5722
V-0.525
p5723
sVyPos
p5724
V-0.132178
p5725
ssVlightNumber243
p5726
(dp5727
VxPos
p5728
V-2.475
p5729
sVyPos
p5730
V0.3678469
p5731
ssVlightNumber242
p5732
(dp5733
VxPos
p5734
V-1.940213
p5735
sVyPos
p5736
V1.975
p5737
ssVlightNumber537
p5738
(dp5739
VxPos
p5740
V-1.864384
p5741
sVyPos
p5742
V-0.975
p5743
ssVlightNumber536
p5744
(dp5745
VxPos
p5746
V-2.475
p5747
sVyPos
p5748
V-0.8216642
p5749
ssVlightNumber535
p5750
(dp5751
VxPos
p5752
V-2.475
p5753
sVyPos
p5754
V-0.2583413
p5755
ssVlightNumber451
p5756
(dp5757
VxPos
p5758
V-1.852201
p5759
sVyPos
p5760
V-0.9750001
p5761
ssVlightNumber533
p5762
(dp5763
VxPos
p5764
V-0.713679
p5765
sVyPos
p5766
V1.975
p5767
ssVlightNumber532
p5768
(dp5769
VxPos
p5770
V-0.5250001
p5771
sVyPos
p5772
V-0.02122051
p5773
ssVlightNumber438
p5774
(dp5775
VxPos
p5776
V-2.475
p5777
sVyPos
p5778
V-0.4413131
p5779
ssVlightNumber439
p5780
(dp5781
VxPos
p5782
V-2.159423
p5783
sVyPos
p5784
V-0.975
p5785
ssVlightNumber436
p5786
(dp5787
VxPos
p5788
V-1.047258
p5789
sVyPos
p5790
V1.975
p5791
ssVlightNumber437
p5792
(dp5793
VxPos
p5794
V-2.475
p5795
sVyPos
p5796
V0.9008957
p5797
ssVlightNumber434
p5798
(dp5799
VxPos
p5800
V0.4750001
p5801
sVyPos
p5802
V-0.6624033
p5803
ssVlightNumber435
p5804
(dp5805
VxPos
p5806
V-0.525
p5807
sVyPos
p5808
V0.06235659
p5809
ssVlightNumber432
p5810
(dp5811
VxPos
p5812
V-1.407908
p5813
sVyPos
p5814
V-0.975
p5815
ssVlightNumber433
p5816
(dp5817
VxPos
p5818
V-1.300718
p5819
sVyPos
p5820
V-0.975
p5821
ssVlightNumber430
p5822
(dp5823
VxPos
p5824
V-1.533477
p5825
sVyPos
p5826
V-0.975
p5827
ssVlightNumber431
p5828
(dp5829
VxPos
p5830
V-1.45301
p5831
sVyPos
p5832
V-0.975
p5833
ssVlightNumber792
p5834
(dp5835
VxPos
p5836
V-2.525
p5837
sVyPos
p5838
V0.2755564
p5839
ssVlightNumber946
p5840
(dp5841
VxPos
p5842
V0.1171825
p5843
sVyPos
p5844
V2.025
p5845
ssVlightNumber947
p5846
(dp5847
VxPos
p5848
V0.3147471
p5849
sVyPos
p5850
V2.025
p5851
ssVlightNumber669
p5852
(dp5853
VxPos
p5854
V-1.743939
p5855
sVyPos
p5856
V-1.025
p5857
ssVlightNumber935
p5858
(dp5859
VxPos
p5860
V-3.475
p5861
sVyPos
p5862
V2.344182
p5863
ssVlightNumber551
p5864
(dp5865
VxPos
p5866
V0.475
p5867
sVyPos
p5868
V-0.3337728
p5869
ssVlightNumber668
p5870
(dp5871
VxPos
p5872
V-0.9390517
p5873
sVyPos
p5874
V-1.025
p5875
ssVlightNumber550
p5876
(dp5877
VxPos
p5878
V-0.7492214
p5879
sVyPos
p5880
V-0.975
p5881
ssVlightNumber942
p5882
(dp5883
VxPos
p5884
V0.3673197
p5885
sVyPos
p5886
V2.975
p5887
ssVlightNumber943
p5888
(dp5889
VxPos
p5890
V-0.04669154
p5891
sVyPos
p5892
V2.975
p5893
ssVlightNumber998
p5894
(dp5895
VxPos
p5896
V2.338503
p5897
sVyPos
p5898
V2.975
p5899
ssVlightNumber940
p5900
(dp5901
VxPos
p5902
V3.475
p5903
sVyPos
p5904
V2.908801
p5905
ssVlightNumber941
p5906
(dp5907
VxPos
p5908
V0.8266353
p5909
sVyPos
p5910
V2.975
p5911
ssVlightNumber790
p5912
(dp5913
VxPos
p5914
V-3.475
p5915
sVyPos
p5916
V0.9979763
p5917
ssVlightNumber48
p5918
(dp5919
VxPos
p5920
V0.475
p5921
sVyPos
p5922
V-0.08063877
p5923
ssVlightNumber49
p5924
(dp5925
VxPos
p5926
V0.003557585
p5927
sVyPos
p5928
V0.9750001
p5929
ssVlightNumber46
p5930
(dp5931
VxPos
p5932
V0.475
p5933
sVyPos
p5934
V-0.9307266
p5935
ssVlightNumber47
p5936
(dp5937
VxPos
p5938
V0.475
p5939
sVyPos
p5940
V-0.5871582
p5941
ssVlightNumber44
p5942
(dp5943
VxPos
p5944
V-0.2680243
p5945
sVyPos
p5946
V-1.975
p5947
ssVlightNumber45
p5948
(dp5949
VxPos
p5950
V0.6553394
p5951
sVyPos
p5952
V-1.975
p5953
ssVlightNumber42
p5954
(dp5955
VxPos
p5956
V-2.475
p5957
sVyPos
p5958
V-0.8872542
p5959
ssVlightNumber43
p5960
(dp5961
VxPos
p5962
V-0.5
p5963
sVyPos
p5964
V-1.00816
p5965
ssVlightNumber40
p5966
(dp5967
VxPos
p5968
V-0.475
p5969
sVyPos
p5970
V0.4314909
p5971
ssVlightNumber41
p5972
(dp5973
VxPos
p5974
V-0.475
p5975
sVyPos
p5976
V-0.2918752
p5977
ssVlightNumber793
p5978
(dp5979
VxPos
p5980
V-2.525
p5981
sVyPos
p5982
V1.190308
p5983
ssVlightNumber559
p5984
(dp5985
VxPos
p5986
V-0.7364054
p5987
sVyPos
p5988
V-0.975
p5989
ssVlightNumber658
p5990
(dp5991
VxPos
p5992
V0.4749999
p5993
sVyPos
p5994
V-0.9762515
p5995
ssVlightNumber659
p5996
(dp5997
VxPos
p5998
V-1.278284
p5999
sVyPos
p6000
V-1.025
p6001
ssVlightNumber797
p6002
(dp6003
VxPos
p6004
V-3.475
p6005
sVyPos
p6006
V2.549919
p6007
ssVlightNumber796
p6008
(dp6009
VxPos
p6010
V-2.747127
p6011
sVyPos
p6012
V2.975
p6013
ssVlightNumber795
p6014
(dp6015
VxPos
p6016
V-2.525
p6017
sVyPos
p6018
V1.977411
p6019
ssVlightNumber558
p6020
(dp6021
VxPos
p6022
V-0.9432467
p6023
sVyPos
p6024
V-0.975
p6025
ssVlightNumber652
p6026
(dp6027
VxPos
p6028
V-2.346118
p6029
sVyPos
p6030
V-1.025
p6031
ssVlightNumber653
p6032
(dp6033
VxPos
p6034
V-3.475
p6035
sVyPos
p6036
V-1.829752
p6037
ssVlightNumber650
p6038
(dp6039
VxPos
p6040
V-1.257242
p6041
sVyPos
p6042
V-1.025
p6043
ssVlightNumber651
p6044
(dp6045
VxPos
p6046
V-1.62361
p6047
sVyPos
p6048
V-1.025
p6049
ssVlightNumber656
p6050
(dp6051
VxPos
p6052
V-1.290356
p6053
sVyPos
p6054
V-1.975
p6055
ssVlightNumber657
p6056
(dp6057
VxPos
p6058
V-0.4826615
p6059
sVyPos
p6060
V-1.975
p6061
ssVlightNumber654
p6062
(dp6063
VxPos
p6064
V-1.945334
p6065
sVyPos
p6066
V-1.975
p6067
ssVlightNumber655
p6068
(dp6069
VxPos
p6070
V-1.585991
p6071
sVyPos
p6072
V-1.975
p6073
ssVlightNumber155
p6074
(dp6075
VxPos
p6076
V-1.197175
p6077
sVyPos
p6078
V-1.025
p6079
ssVlightNumber154
p6080
(dp6081
VxPos
p6082
V-1.111417
p6083
sVyPos
p6084
V-1.025
p6085
ssVlightNumber157
p6086
(dp6087
VxPos
p6088
V-1.496458
p6089
sVyPos
p6090
V-1.025
p6091
ssVlightNumber156
p6092
(dp6093
VxPos
p6094
V-1.274469
p6095
sVyPos
p6096
V-1.025
p6097
ssVlightNumber151
p6098
(dp6099
VxPos
p6100
V-0.7473538
p6101
sVyPos
p6102
V-1.975
p6103
ssVlightNumber150
p6104
(dp6105
VxPos
p6106
V-1.328265
p6107
sVyPos
p6108
V-1.975
p6109
ssVlightNumber153
p6110
(dp6111
VxPos
p6112
V-0.7067719
p6113
sVyPos
p6114
V-1.025
p6115
ssVlightNumber152
p6116
(dp6117
VxPos
p6118
V0.6133826
p6119
sVyPos
p6120
V-1.975
p6121
ssVlightNumber159
p6122
(dp6123
VxPos
p6124
V-1.824262
p6125
sVyPos
p6126
V-1.975
p6127
ssVlightNumber158
p6128
(dp6129
VxPos
p6130
V-3.475
p6131
sVyPos
p6132
V-1.82261
p6133
sssVleapfrogs
p6134
(dp6135
sVglobalData
p6136
(dp6137
VidCounter
p6138
V35
p6139
ssVnumOfLidarLights
p6140
I1021
sVplayer
p6141
(dp6142
VisHolding
p6143
VFalse
p6144
sVxPos
p6145
V0.5835274
p6146
sVheldObjID
p6147
Vnothing
p6148
sVyPos
p6149
V1.292113
p6150
ssVwalls
p6151
(dp6152
VwallNumber21
p6153
(dp6154
Vwidth
p6155
V7
p6156
sVxPos
p6157
V0
p6158
sVyPos
p6159
V-2
p6160
sVheight
p6161
V0.05
p6162
ssVwallNumber20
p6163
(dp6164
Vwidth
p6165
g6156
sVxPos
p6166
g6158
sVyPos
p6167
V3
p6168
sVheight
p6169
V0.05
p6170
ssVwallNumber23
p6171
(dp6172
Vwidth
p6173
V0.05
p6174
sVxPos
p6175
V3.5
p6176
sVyPos
p6177
V0.5
p6178
sVheight
p6179
V5
p6180
ssVwallNumber22
p6181
(dp6182
Vwidth
p6183
V0.05
p6184
sVxPos
p6185
V-3.5
p6186
sVyPos
p6187
V0.5
p6188
sVheight
p6189
g6180
ssVwallNumber10
p6190
(dp6191
Vwidth
p6192
V1
p6193
sVxPos
p6194
g6158
sVyPos
p6195
g4621
sVheight
p6196
V0.05
p6197
ssVwallNumber11
p6198
(dp6199
Vwidth
p6200
g6193
sVxPos
p6201
g6158
sVyPos
p6202
g6193
sVheight
p6203
V0.05
p6204
ssVwallNumber12
p6205
(dp6206
Vwidth
p6207
V0.05
p6208
sVxPos
p6209
V-0.5
p6210
sVyPos
p6211
V1.5
p6212
sVheight
p6213
g6193
ssVwallNumber13
p6214
(dp6215
Vwidth
p6216
V0.05
p6217
sVxPos
p6218
V0.5
p6219
sVyPos
p6220
V1.1
p6221
sVheight
p6222
V0.2
p6223
ssVwallNumber14
p6224
(dp6225
Vwidth
p6226
V0.05
p6227
sVxPos
p6228
V0.5
p6229
sVyPos
p6230
V1.9
p6231
sVheight
p6232
V0.2
p6233
ssVwallNumber15
p6234
(dp6235
Vwidth
p6236
g6193
sVxPos
p6237
g4621
sVyPos
p6238
g4621
sVheight
p6239
V0.05
p6240
ssVwallNumber16
p6241
(dp6242
Vwidth
p6243
g6193
sVxPos
p6244
g4621
sVyPos
p6245
g6193
sVheight
p6246
V0.05
p6247
ssVwallNumber17
p6248
(dp6249
Vwidth
p6250
V0.05
p6251
sVxPos
p6252
V1.5
p6253
sVyPos
p6254
V1.1
p6255
sVheight
p6256
V0.2
p6257
ssVwallNumber18
p6258
(dp6259
Vwidth
p6260
V0.05
p6261
sVxPos
p6262
V1.5
p6263
sVyPos
p6264
V1.9
p6265
sVheight
p6266
V0.2
p6267
ssVwallNumber19
p6268
(dp6269
Vwidth
p6270
V0.05
p6271
sVxPos
p6272
V2.5
p6273
sVyPos
p6274
V1.5
p6275
sVheight
p6276
g6193
ssVwallNumber8
p6277
(dp6278
Vwidth
p6279
V0.05
p6280
sVxPos
p6281
V-0.5
p6282
sVyPos
p6283
V-1
p6284
sVheight
p6285
g6158
ssVwallNumber9
p6286
(dp6287
Vwidth
p6288
V0.05
p6289
sVxPos
p6290
V-0.5
p6291
sVyPos
p6292
V0.8
p6293
sVheight
p6294
V2.4
p6295
ssVwallNumber6
p6296
(dp6297
Vwidth
p6298
g4621
sVxPos
p6299
V-1.5
p6300
sVyPos
p6301
V-1
p6302
sVheight
p6303
V0.05
p6304
ssVwallNumber7
p6305
(dp6306
Vwidth
p6307
V0.05
p6308
sVxPos
p6309
V-2.5
p6310
sVyPos
p6311
V0.5
p6312
sVheight
p6313
g6168
ssVwallNumber4
p6314
(dp6315
Vwidth
p6316
V0.05
p6317
sVxPos
p6318
V2.5
p6319
sVyPos
p6320
V-0.5
p6321
sVheight
p6322
g6193
ssVwallNumber5
p6323
(dp6324
Vwidth
p6325
g4621
sVxPos
p6326
V-1.5
p6327
sVyPos
p6328
g4621
sVheight
p6329
V0.05
p6330
ssVwallNumber2
p6331
(dp6332
Vwidth
p6333
g4621
sVxPos
p6334
V1.5
p6335
sVyPos
p6336
V-1
p6337
sVheight
p6338
V0.05
p6339
ssVwallNumber3
p6340
(dp6341
Vwidth
p6342
V0.05
p6343
sVxPos
p6344
V0.5
p6345
sVyPos
p6346
V-0.5
p6347
sVheight
p6348
g6193
ssVwallNumber0
p6349
(dp6350
Vwidth
p6351
g6158
sVxPos
p6352
V0.5
p6353
sVyPos
p6354
g6158
sVheight
p6355
V0.05
p6356
ssVwallNumber1
p6357
(dp6358
Vwidth
p6359
V1.4
p6360
sVxPos
p6361
V1.8
p6362
sVyPos
p6363
g6158
sVheight
p6364
V0.05
p6365
sssVnumOfSquadLeaders
p6366
I0
sVcollectables
p6367
(dp6368
VcollectableNumber1
p6369
(dp6370
VxPos
p6371
V-2
p6372
sVspriteNum
p6373
g6193
sVyPos
p6374
V-0.5
p6375
sVlayer
p6376
g4621
sVcolorNum
p6377
g6193
sVvisible
p6378
VTrue
p6379
sVid
p6380
V31
p6381
ssVcollectableNumber0
p6382
(dp6383
VxPos
p6384
g6193
sVspriteNum
p6385
g6158
sVyPos
p6386
V-0.5
p6387
sVlayer
p6388
g4621
sVcolorNum
p6389
g6158
sVvisible
p6390
VTrue
p6391
sVid
p6392
V30
p6393
ssVcollectableNumber3
p6394
(dp6395
VxPos
p6396
g6158
sVspriteNum
p6397
g6168
sVyPos
p6398
V1.5
p6399
sVlayer
p6400
g4621
sVcolorNum
p6401
g6168
sVvisible
p6402
VTrue
p6403
sVid
p6404
V33
p6405
ssVcollectableNumber2
p6406
(dp6407
VxPos
p6408
g4621
sVspriteNum
p6409
g4621
sVyPos
p6410
V-0.5
p6411
sVlayer
p6412
g4621
sVcolorNum
p6413
g4621
sVvisible
p6414
VTrue
p6415
sVid
p6416
V32
p6417
ssVcollectableNumber4
p6418
(dp6419
VxPos
p6420
V-1
p6421
sVspriteNum
p6422
V4
p6423
sVyPos
p6424
V-0.5
p6425
sVlayer
p6426
g4621
sVcolorNum
p6427
g6423
sVvisible
p6428
VTrue
p6429
sVid
p6430
V34
p6431
sssVnumOfWaypoints
p6432
I0
sVnumOfLeapfrogs
p6433
I0
sVnumOfCollectables
p6434
I5
s.