(dp0
VnumOfWalls
p1
I19
sVwaypoints
p2
(dp3
sVsquadLeaders
p4
(dp5
sVlidarLights
p6
(dp7
VlightNumber11
p8
(dp9
VxPos
p10
V-0.475
p11
sVyPos
p12
V0.3727244
p13
ssVlightNumber10
p14
(dp15
VxPos
p16
V-0.475
p17
sVyPos
p18
V0.6919123
p19
ssVlightNumber13
p20
(dp21
VxPos
p22
V-0.0257465
p23
sVyPos
p24
V-0.975
p25
ssVlightNumber12
p26
(dp27
VxPos
p28
V-0.475
p29
sVyPos
p30
V-0.1079718
p31
ssVlightNumber9
p32
(dp33
VxPos
p34
V-0.475
p35
sVyPos
p36
V1.290533
p37
ssVlightNumber8
p38
(dp39
VxPos
p40
V1.37546
p41
sVyPos
p42
V1.975
p43
ssVlightNumber1
p44
(dp45
VxPos
p46
V-0.475
p47
sVyPos
p48
V1.737418
p49
ssVlightNumber0
p50
(dp51
VxPos
p52
V0.4229496
p53
sVyPos
p54
V1.975
p55
ssVlightNumber3
p56
(dp57
VxPos
p58
V-0.475
p59
sVyPos
p60
V0.4584428
p61
ssVlightNumber2
p62
(dp63
VxPos
p64
V-0.475
p65
sVyPos
p66
V0.796813
p67
ssVlightNumber5
p68
(dp69
VxPos
p70
V-0.2867108
p71
sVyPos
p72
V-0.975
p73
ssVlightNumber4
p74
(dp75
VxPos
p76
V-0.475
p77
sVyPos
p78
V0.07230815
p79
ssVlightNumber7
p80
(dp81
VxPos
p82
V2.475
p83
sVyPos
p84
V0.9364096
p85
ssVlightNumber6
p86
(dp87
VxPos
p88
V0.7194053
p89
sVyPos
p90
V-0.975
p91
sssVleapfrogs
p92
(dp93
sVglobalData
p94
(dp95
VidCounter
p96
V10
p97
ssVnumOfLidarLights
p98
I14
sVplayer
p99
(dp100
VisHolding
p101
VFalse
p102
sVxPos
p103
V0
p104
sVheldObjID
p105
Vnothing
p106
sVyPos
p107
V0.5
p108
ssVwalls
p109
(dp110
VwallNumber10
p111
(dp112
Vwidth
p113
V1
p114
sVxPos
p115
V-2
p116
sVyPos
p117
V2
p118
sVheight
p119
V0.05
p120
ssVwallNumber11
p121
(dp122
Vwidth
p123
g114
sVxPos
p124
V-2
p125
sVyPos
p126
g114
sVheight
p127
V0.05
p128
ssVwallNumber12
p129
(dp130
Vwidth
p131
V0.05
p132
sVxPos
p133
V-2.5
p134
sVyPos
p135
V1.5
p136
sVheight
p137
g114
ssVwallNumber13
p138
(dp139
Vwidth
p140
V0.05
p141
sVxPos
p142
V-1.5
p143
sVyPos
p144
V1.1
p145
sVheight
p146
V0.2
p147
ssVwallNumber14
p148
(dp149
Vwidth
p150
V0.05
p151
sVxPos
p152
V-1.5
p153
sVyPos
p154
V1.9
p155
sVheight
p156
V0.2
p157
ssVwallNumber15
p158
(dp159
Vwidth
p160
V7
p161
sVxPos
p162
g104
sVyPos
p163
V3
p164
sVheight
p165
V0.05
p166
ssVwallNumber16
p167
(dp168
Vwidth
p169
g161
sVxPos
p170
g104
sVyPos
p171
V-2
p172
sVheight
p173
V0.05
p174
ssVwallNumber17
p175
(dp176
Vwidth
p177
V0.05
p178
sVxPos
p179
V-3.5
p180
sVyPos
p181
V0.5
p182
sVheight
p183
V5
p184
ssVwallNumber18
p185
(dp186
Vwidth
p187
V0.05
p188
sVxPos
p189
V3.5
p190
sVyPos
p191
V0.5
p192
sVheight
p193
g184
ssVwallNumber8
p194
(dp195
Vwidth
p196
V0.05
p197
sVxPos
p198
V-0.5
p199
sVyPos
p200
V0.8
p201
sVheight
p202
V2.4
p203
ssVwallNumber9
p204
(dp205
Vwidth
p206
V0.05
p207
sVxPos
p208
V2.5
p209
sVyPos
p210
V0.5
p211
sVheight
p212
g164
ssVwallNumber6
p213
(dp214
Vwidth
p215
g164
sVxPos
p216
g114
sVyPos
p217
V-1
p218
sVheight
p219
V0.05
p220
ssVwallNumber7
p221
(dp222
Vwidth
p223
V0.05
p224
sVxPos
p225
V-0.5
p226
sVyPos
p227
V-1
p228
sVheight
p229
g104
ssVwallNumber4
p230
(dp231
Vwidth
p232
V0.05
p233
sVxPos
p234
V-1.5
p235
sVyPos
p236
V-0.09999999
p237
sVheight
p238
V0.2
p239
ssVwallNumber5
p240
(dp241
Vwidth
p242
g164
sVxPos
p243
g114
sVyPos
p244
g118
sVheight
p245
V0.05
p246
ssVwallNumber2
p247
(dp248
Vwidth
p249
V0.05
p250
sVxPos
p251
V-2.5
p252
sVyPos
p253
V-0.5
p254
sVheight
p255
g114
ssVwallNumber3
p256
(dp257
Vwidth
p258
V0.05
p259
sVxPos
p260
V-1.5
p261
sVyPos
p262
V-0.9
p263
sVheight
p264
V0.2
p265
ssVwallNumber0
p266
(dp267
Vwidth
p268
g114
sVxPos
p269
V-2
p270
sVyPos
p271
g104
sVheight
p272
V0.05
p273
ssVwallNumber1
p274
(dp275
Vwidth
p276
g114
sVxPos
p277
V-2
p278
sVyPos
p279
V-1
p280
sVheight
p281
V0.05
p282
sssVnumOfSquadLeaders
p283
I0
sVcollectables
p284
(dp285
VcollectableNumber1
p286
(dp287
VxPos
p288
V-2
p289
sVspriteNum
p290
g114
sVyPos
p291
V1.5
p292
sVlayer
p293
g104
sVcolorNum
p294
g114
sVvisible
p295
VFalse
p296
sVid
p297
V6
p298
ssVcollectableNumber0
p299
(dp300
VxPos
p301
g104
sVspriteNum
p302
g104
sVyPos
p303
V0.5
p304
sVlayer
p305
g118
sVcolorNum
p306
g104
sVvisible
p307
VTrue
p308
sVid
p309
g184
ssVcollectableNumber3
p310
(dp311
VxPos
p312
g118
sVspriteNum
p313
g164
sVyPos
p314
V-0.5
p315
sVlayer
p316
g118
sVcolorNum
p317
g164
sVvisible
p318
VTrue
p319
sVid
p320
V8
p321
ssVcollectableNumber2
p322
(dp323
VxPos
p324
g104
sVspriteNum
p325
g118
sVyPos
p326
V1.5
p327
sVlayer
p328
g118
sVcolorNum
p329
g118
sVvisible
p330
VTrue
p331
sVid
p332
g161
ssVcollectableNumber4
p333
(dp334
VxPos
p335
g114
sVspriteNum
p336
V4
p337
sVyPos
p338
V0.5
p339
sVlayer
p340
g104
sVcolorNum
p341
g337
sVvisible
p342
VFalse
p343
sVid
p344
V9
p345
sssVnumOfWaypoints
p346
I0
sVnumOfLeapfrogs
p347
I0
sVnumOfCollectables
p348
I5
s.