(dp0
VnumOfWalls
p1
I19
sVwaypoints
p2
(dp3
sVsquadLeaders
p4
(dp5
sVlidarLights
p6
(dp7
VlightNumber1
p8
(dp9
VxPos
p10
V-0.5661994
p11
sVyPos
p12
V1.975
p13
ssVlightNumber0
p14
(dp15
VxPos
p16
V0.4229496
p17
sVyPos
p18
V1.975
p19
ssVlightNumber3
p20
(dp21
VxPos
p22
V-1.638154
p23
sVyPos
p24
V-0.975
p25
ssVlightNumber2
p26
(dp27
VxPos
p28
V-2.360493
p29
sVyPos
p30
V1.975
p31
ssVlightNumber5
p32
(dp33
VxPos
p34
V0.475
p35
sVyPos
p36
V-0.4738947
p37
ssVlightNumber4
p38
(dp39
VxPos
p40
V-0.2867108
p41
sVyPos
p42
V-0.975
p43
ssVlightNumber7
p44
(dp45
VxPos
p46
V0.475
p47
sVyPos
p48
V0.5837554
p49
ssVlightNumber6
p50
(dp51
VxPos
p52
V0.475
p53
sVyPos
p54
V0.2579754
p55
sssVleapfrogs
p56
(dp57
sVglobalData
p58
(dp59
VidCounter
p60
V10
p61
ssVnumOfLidarLights
p62
I8
sVplayer
p63
(dp64
VisHolding
p65
VFalse
p66
sVxPos
p67
V0
p68
sVheldObjID
p69
Vnothing
p70
sVyPos
p71
V0.5
p72
ssVwalls
p73
(dp74
VwallNumber10
p75
(dp76
Vwidth
p77
V1
p78
sVxPos
p79
V2
p80
sVyPos
p81
g80
sVheight
p82
V0.05
p83
ssVwallNumber11
p84
(dp85
Vwidth
p86
V0.2
p87
sVxPos
p88
V1.6
p89
sVyPos
p90
g78
sVheight
p91
V0.05
p92
ssVwallNumber12
p93
(dp94
Vwidth
p95
V0.2
p96
sVxPos
p97
V2.4
p98
sVyPos
p99
g78
sVheight
p100
V0.05
p101
ssVwallNumber13
p102
(dp103
Vwidth
p104
V0.05
p105
sVxPos
p106
V1.5
p107
sVyPos
p108
V1.5
p109
sVheight
p110
g78
ssVwallNumber14
p111
(dp112
Vwidth
p113
V0.05
p114
sVxPos
p115
V2.5
p116
sVyPos
p117
V1.5
p118
sVheight
p119
g78
ssVwallNumber15
p120
(dp121
Vwidth
p122
V7
p123
sVxPos
p124
g68
sVyPos
p125
V3
p126
sVheight
p127
V0.05
p128
ssVwallNumber16
p129
(dp130
Vwidth
p131
g123
sVxPos
p132
g68
sVyPos
p133
V-2
p134
sVheight
p135
V0.05
p136
ssVwallNumber17
p137
(dp138
Vwidth
p139
V0.05
p140
sVxPos
p141
V-3.5
p142
sVyPos
p143
V0.5
p144
sVheight
p145
V5
p146
ssVwallNumber18
p147
(dp148
Vwidth
p149
V0.05
p150
sVxPos
p151
V3.5
p152
sVyPos
p153
V0.5
p154
sVheight
p155
g146
ssVwallNumber8
p156
(dp157
Vwidth
p158
V0.05
p159
sVxPos
p160
V1.5
p161
sVyPos
p162
V-0.5
p163
sVheight
p164
g78
ssVwallNumber9
p165
(dp166
Vwidth
p167
V0.05
p168
sVxPos
p169
V2.5
p170
sVyPos
p171
V-0.5
p172
sVheight
p173
g78
ssVwallNumber6
p174
(dp175
Vwidth
p176
V0.2
p177
sVxPos
p178
V2.4
p179
sVyPos
p180
g68
sVheight
p181
V0.05
p182
ssVwallNumber7
p183
(dp184
Vwidth
p185
g78
sVxPos
p186
g80
sVyPos
p187
V-1
p188
sVheight
p189
V0.05
p190
ssVwallNumber4
p191
(dp192
Vwidth
p193
V0.05
p194
sVxPos
p195
V0.5
p196
sVyPos
p197
g80
sVheight
p198
g68
ssVwallNumber5
p199
(dp200
Vwidth
p201
V0.2
p202
sVxPos
p203
V1.6
p204
sVyPos
p205
g68
sVheight
p206
V0.05
p207
ssVwallNumber2
p208
(dp209
Vwidth
p210
V0.05
p211
sVxPos
p212
V-2.5
p213
sVyPos
p214
V0.5
p215
sVheight
p216
g126
ssVwallNumber3
p217
(dp218
Vwidth
p219
V0.05
p220
sVxPos
p221
V0.5
p222
sVyPos
p223
V0.2
p224
sVheight
p225
V2.4
p226
ssVwallNumber0
p227
(dp228
Vwidth
p229
g126
sVxPos
p230
V-1
p231
sVyPos
p232
g80
sVheight
p233
V0.05
p234
ssVwallNumber1
p235
(dp236
Vwidth
p237
g126
sVxPos
p238
V-1
p239
sVyPos
p240
V-1
p241
sVheight
p242
V0.05
p243
sssVnumOfSquadLeaders
p244
I0
sVcollectables
p245
(dp246
VcollectableNumber1
p247
(dp248
VxPos
p249
V-2
p250
sVspriteNum
p251
g78
sVyPos
p252
V0.5
p253
sVlayer
p254
g68
sVcolorNum
p255
g78
sVvisible
p256
VFalse
p257
sVid
p258
V6
p259
ssVcollectableNumber0
p260
(dp261
VxPos
p262
V-1
p263
sVspriteNum
p264
g68
sVyPos
p265
V0.5
p266
sVlayer
p267
g80
sVcolorNum
p268
g68
sVvisible
p269
VTrue
p270
sVid
p271
g146
ssVcollectableNumber3
p272
(dp273
VxPos
p274
V-2
p275
sVspriteNum
p276
g126
sVyPos
p277
V1.5
p278
sVlayer
p279
g68
sVcolorNum
p280
g126
sVvisible
p281
VFalse
p282
sVid
p283
V8
p284
ssVcollectableNumber2
p285
(dp286
VxPos
p287
g68
sVspriteNum
p288
g80
sVyPos
p289
V1.5
p290
sVlayer
p291
g68
sVcolorNum
p292
g80
sVvisible
p293
VFalse
p294
sVid
p295
g123
ssVcollectableNumber4
p296
(dp297
VxPos
p298
g68
sVspriteNum
p299
V4
p300
sVyPos
p301
V0.5
p302
sVlayer
p303
g80
sVcolorNum
p304
g300
sVvisible
p305
VTrue
p306
sVid
p307
V9
p308
sssVnumOfWaypoints
p309
I0
sVnumOfLeapfrogs
p310
I0
sVnumOfCollectables
p311
I5
s.