(dp0
VnumOfWalls
p1
I14
sVwaypoints
p2
(dp3
sVsquadLeaders
p4
(dp5
sVlidarLights
p6
(dp7
VlightNumber1
p8
(dp9
VxPos
p10
V-0.5661994
p11
sVyPos
p12
V1.975
p13
ssVlightNumber0
p14
(dp15
VxPos
p16
V0.4229496
p17
sVyPos
p18
V1.975
p19
ssVlightNumber3
p20
(dp21
VxPos
p22
V-1.638154
p23
sVyPos
p24
V-0.975
p25
ssVlightNumber2
p26
(dp27
VxPos
p28
V-2.360493
p29
sVyPos
p30
V1.975
p31
ssVlightNumber5
p32
(dp33
VxPos
p34
V0.475
p35
sVyPos
p36
V-0.4738947
p37
ssVlightNumber4
p38
(dp39
VxPos
p40
V-0.2867108
p41
sVyPos
p42
V-0.975
p43
ssVlightNumber7
p44
(dp45
VxPos
p46
V0.475
p47
sVyPos
p48
V0.5837554
p49
ssVlightNumber6
p50
(dp51
VxPos
p52
V0.475
p53
sVyPos
p54
V0.2579754
p55
sssVleapfrogs
p56
(dp57
sVglobalData
p58
(dp59
VidCounter
p60
V5
p61
ssVnumOfLidarLights
p62
I8
sVplayer
p63
(dp64
VisHolding
p65
VFalse
p66
sVxPos
p67
V0
p68
sVheldObjID
p69
Vnothing
p70
sVyPos
p71
V0.5
p72
ssVwalls
p73
(dp74
VwallNumber10
p75
(dp76
Vwidth
p77
V7
p78
sVxPos
p79
g68
sVyPos
p80
V3
p81
sVheight
p82
V0.05
p83
ssVwallNumber11
p84
(dp85
Vwidth
p86
g78
sVxPos
p87
g68
sVyPos
p88
V-2
p89
sVheight
p90
V0.05
p91
ssVwallNumber12
p92
(dp93
Vwidth
p94
V0.05
p95
sVxPos
p96
V-3.5
p97
sVyPos
p98
V0.5
p99
sVheight
p100
g61
ssVwallNumber13
p101
(dp102
Vwidth
p103
V0.05
p104
sVxPos
p105
V3.5
p106
sVyPos
p107
V0.5
p108
sVheight
p109
g61
ssVwallNumber8
p110
(dp111
Vwidth
p112
V0.05
p113
sVxPos
p114
V0.5
p115
sVyPos
p116
V0.2
p117
sVheight
p118
V2.4
p119
ssVwallNumber9
p120
(dp121
Vwidth
p122
V0.05
p123
sVxPos
p124
V0.5
p125
sVyPos
p126
V2
p127
sVheight
p128
g68
ssVwallNumber6
p129
(dp130
Vwidth
p131
g81
sVxPos
p132
V-1
p133
sVyPos
p134
V-1
p135
sVheight
p136
V0.05
p137
ssVwallNumber7
p138
(dp139
Vwidth
p140
V0.05
p141
sVxPos
p142
V-2.5
p143
sVyPos
p144
V0.5
p145
sVheight
p146
g81
ssVwallNumber4
p147
(dp148
Vwidth
p149
V0.05
p150
sVxPos
p151
V2.5
p152
sVyPos
p153
V0.5
p154
sVheight
p155
g81
ssVwallNumber5
p156
(dp157
Vwidth
p158
g81
sVxPos
p159
V-1
p160
sVyPos
p161
g127
sVheight
p162
V0.05
p163
ssVwallNumber2
p164
(dp165
Vwidth
p166
V0.05
p167
sVxPos
p168
V1.5
p169
sVyPos
p170
V0.2
p171
sVheight
p172
V2.4
p173
ssVwallNumber3
p174
(dp175
Vwidth
p176
V0.05
p177
sVxPos
p178
V1.5
p179
sVyPos
p180
g127
sVheight
p181
g68
ssVwallNumber0
p182
(dp183
Vwidth
p184
V1
p185
sVxPos
p186
g127
sVyPos
p187
g127
sVheight
p188
V0.05
p189
ssVwallNumber1
p190
(dp191
Vwidth
p192
g185
sVxPos
p193
g127
sVyPos
p194
V-1
p195
sVheight
p196
V0.05
p197
sssVnumOfSquadLeaders
p198
I0
sVcollectables
p199
(dp200
VcollectableNumber1
p201
(dp202
VxPos
p203
g68
sVspriteNum
p204
g185
sVyPos
p205
V0.5
p206
sVlayer
p207
g127
sVcolorNum
p208
g185
sVvisible
p209
VTrue
p210
sVid
p211
g185
ssVcollectableNumber0
p212
(dp213
VxPos
p214
g127
sVspriteNum
p215
g68
sVyPos
p216
V0.5
p217
sVlayer
p218
g68
sVcolorNum
p219
g68
sVvisible
p220
VFalse
p221
sVid
p222
g68
ssVcollectableNumber3
p223
(dp224
VxPos
p225
g68
sVspriteNum
p226
g81
sVyPos
p227
V-0.5
p228
sVlayer
p229
g68
sVcolorNum
p230
g81
sVvisible
p231
VFalse
p232
sVid
p233
g81
ssVcollectableNumber2
p234
(dp235
VxPos
p236
V-2
p237
sVspriteNum
p238
g127
sVyPos
p239
V1.5
p240
sVlayer
p241
g68
sVcolorNum
p242
g127
sVvisible
p243
VFalse
p244
sVid
p245
g127
ssVcollectableNumber4
p246
(dp247
VxPos
p248
V-1
p249
sVspriteNum
p250
V4
p251
sVyPos
p252
V0.5
p253
sVlayer
p254
g127
sVcolorNum
p255
g251
sVvisible
p256
VTrue
p257
sVid
p258
g251
sssVnumOfWaypoints
p259
I0
sVnumOfLeapfrogs
p260
I0
sVnumOfCollectables
p261
I5
s.