(dp0
VnumOfWalls
p1
I29
sVwaypoints
p2
(dp3
sVsquadLeaders
p4
(dp5
sVlidarLights
p6
(dp7
VlightNumber9
p8
(dp9
VxPos
p10
V2.693857
p11
sVyPos
p12
V0.975
p13
ssVlightNumber8
p14
(dp15
VxPos
p16
V0.9322399
p17
sVyPos
p18
V0.02500001
p19
ssVlightNumber1
p20
(dp21
VxPos
p22
V0.1362041
p23
sVyPos
p24
V0.975
p25
ssVlightNumber0
p26
(dp27
VxPos
p28
V0.6303464
p29
sVyPos
p30
V0.975
p31
ssVlightNumber3
p32
(dp33
VxPos
p34
V-0.7601588
p35
sVyPos
p36
V0.975
p37
ssVlightNumber2
p38
(dp39
VxPos
p40
V-0.1823354
p41
sVyPos
p42
V0.975
p43
ssVlightNumber5
p44
(dp45
VxPos
p46
V-0.527541
p47
sVyPos
p48
V0.02500001
p49
ssVlightNumber4
p50
(dp51
VxPos
p52
V-3.475
p53
sVyPos
p54
V0.1959766
p55
ssVlightNumber7
p56
(dp57
VxPos
p58
V0.2316729
p59
sVyPos
p60
V0.02499998
p61
ssVlightNumber6
p62
(dp63
VxPos
p64
V-0.09233059
p65
sVyPos
p66
V0.02500001
p67
sssVleapfrogs
p68
(dp69
sVglobalData
p70
(dp71
VidCounter
p72
V5
p73
ssVnumOfLidarLights
p74
I10
sVplayer
p75
(dp76
VisHolding
p77
VFalse
p78
sVxPos
p79
V0
p80
sVheldObjID
p81
Vnothing
p82
sVyPos
p83
V0.5
p84
ssVwalls
p85
(dp86
VwallNumber28
p87
(dp88
Vwidth
p89
V0.05
p90
sVxPos
p91
V5.5
p92
sVyPos
p93
V0.5
p94
sVheight
p95
V7
p96
ssVwallNumber21
p97
(dp98
Vwidth
p99
g80
sVxPos
p100
V4.5
p101
sVyPos
p102
g80
sVheight
p103
V0.05
p104
ssVwallNumber20
p105
(dp106
Vwidth
p107
V6.4
p108
sVxPos
p109
V0.7
p110
sVyPos
p111
g80
sVheight
p112
V0.05
p113
ssVwallNumber23
p114
(dp115
Vwidth
p116
V0.05
p117
sVxPos
p118
V-2.5
p119
sVyPos
p120
V-0.5
p121
sVheight
p122
V1
p123
ssVwallNumber22
p124
(dp125
Vwidth
p126
g96
sVxPos
p127
g123
sVyPos
p128
V-1
p129
sVheight
p130
V0.05
p131
ssVwallNumber25
p132
(dp133
Vwidth
p134
V11
p135
sVxPos
p136
g80
sVyPos
p137
V4
p138
sVheight
p139
V0.05
p140
ssVwallNumber24
p141
(dp142
Vwidth
p143
V0.05
p144
sVxPos
p145
V4.5
p146
sVyPos
p147
V-0.5
p148
sVheight
p149
g123
ssVwallNumber27
p150
(dp151
Vwidth
p152
V0.05
p153
sVxPos
p154
V-5.5
p155
sVyPos
p156
V0.5
p157
sVheight
p158
g96
ssVwallNumber26
p159
(dp160
Vwidth
p161
V11
p162
sVxPos
p163
g80
sVyPos
p164
V-3
p165
sVheight
p166
V0.05
p167
ssVwallNumber10
p168
(dp169
Vwidth
p170
g96
sVxPos
p171
g123
sVyPos
p172
V2
p173
sVheight
p174
V0.05
p175
ssVwallNumber11
p176
(dp177
Vwidth
p178
V1.066667
p179
sVxPos
p180
V-1.966667
p181
sVyPos
p182
g123
sVheight
p183
V0.05
p184
ssVwallNumber12
p185
(dp186
Vwidth
p187
V5.333333
p188
sVxPos
p189
V1.833333
p190
sVyPos
p191
g123
sVheight
p192
V0.05
p193
ssVwallNumber13
p194
(dp195
Vwidth
p196
V0.05
p197
sVxPos
p198
V-2.5
p199
sVyPos
p200
V1.5
p201
sVheight
p202
g123
ssVwallNumber14
p203
(dp204
Vwidth
p205
V0.05
p206
sVxPos
p207
V4.5
p208
sVyPos
p209
V1.5
p210
sVheight
p211
g123
ssVwallNumber15
p212
(dp213
Vwidth
p214
g80
sVxPos
p215
V-4.5
p216
sVyPos
p217
V-1
p218
sVheight
p219
V0.05
p220
ssVwallNumber16
p221
(dp222
Vwidth
p223
V8.4
p224
sVxPos
p225
V0.3000002
p226
sVyPos
p227
V-1
p228
sVheight
p229
V0.05
p230
ssVwallNumber17
p231
(dp232
Vwidth
p233
V9
p234
sVxPos
p235
g80
sVyPos
p236
V-2
p237
sVheight
p238
V0.05
p239
ssVwallNumber18
p240
(dp241
Vwidth
p242
V0.05
p243
sVxPos
p244
V-4.5
p245
sVyPos
p246
V-1.5
p247
sVheight
p248
g123
ssVwallNumber19
p249
(dp250
Vwidth
p251
V0.05
p252
sVxPos
p253
V4.5
p254
sVyPos
p255
V-1.5
p256
sVheight
p257
g123
ssVwallNumber8
p258
(dp259
Vwidth
p260
V0.05
p261
sVxPos
p262
V-4.5
p263
sVyPos
p264
V2.5
p265
sVheight
p266
g123
ssVwallNumber9
p267
(dp268
Vwidth
p269
V0.05
p270
sVxPos
p271
V4.5
p272
sVyPos
p273
V2.5
p274
sVheight
p275
g123
ssVwallNumber6
p276
(dp277
Vwidth
p278
V1.05
p279
sVxPos
p280
V-3.975
p281
sVyPos
p282
g173
sVheight
p283
V0.05
p284
ssVwallNumber7
p285
(dp286
Vwidth
p287
V7.349999
p288
sVxPos
p289
V0.8250003
p290
sVyPos
p291
g173
sVheight
p292
V0.05
p293
ssVwallNumber4
p294
(dp295
Vwidth
p296
V0.05
p297
sVxPos
p298
V-3.5
p299
sVyPos
p300
V0.5
p301
sVheight
p302
g123
ssVwallNumber5
p303
(dp304
Vwidth
p305
g234
sVxPos
p306
g80
sVyPos
p307
V3
p308
sVheight
p309
V0.05
p310
ssVwallNumber2
p311
(dp312
Vwidth
p313
g123
sVxPos
p314
V-4
p315
sVyPos
p316
g80
sVheight
p317
V0.05
p318
ssVwallNumber3
p319
(dp320
Vwidth
p321
V0.05
p322
sVxPos
p323
V-4.5
p324
sVyPos
p325
V0.5
p326
sVheight
p327
g123
ssVwallNumber0
p328
(dp329
Vwidth
p330
V0.2
p331
sVxPos
p332
V-4.4
p333
sVyPos
p334
g123
sVheight
p335
V0.05
p336
ssVwallNumber1
p337
(dp338
Vwidth
p339
V0.2
p340
sVxPos
p341
V-3.6
p342
sVyPos
p343
g123
sVheight
p344
V0.05
p345
sssVnumOfSquadLeaders
p346
I0
sVcollectables
p347
(dp348
VcollectableNumber1
p349
(dp350
VxPos
p351
g173
sVspriteNum
p352
g123
sVyPos
p353
V2.5
p354
sVlayer
p355
g80
sVcolorNum
p356
g123
sVvisible
p357
VFalse
p358
sVid
p359
g123
ssVcollectableNumber0
p360
(dp361
VxPos
p362
g138
sVspriteNum
p363
g80
sVyPos
p364
V-0.5
p365
sVlayer
p366
g80
sVcolorNum
p367
g80
sVvisible
p368
VFalse
p369
sVid
p370
g80
ssVcollectableNumber3
p371
(dp372
VxPos
p373
g123
sVspriteNum
p374
g308
sVyPos
p375
V-0.5
p376
sVlayer
p377
g80
sVcolorNum
p378
g308
sVvisible
p379
VFalse
p380
sVid
p381
g308
ssVcollectableNumber2
p382
(dp383
VxPos
p384
V-3
p385
sVspriteNum
p386
g173
sVyPos
p387
V2.5
p388
sVlayer
p389
g80
sVcolorNum
p390
g173
sVvisible
p391
VFalse
p392
sVid
p393
g173
ssVcollectableNumber4
p394
(dp395
VxPos
p396
V-2
p397
sVspriteNum
p398
g138
sVyPos
p399
V-1.5
p400
sVlayer
p401
g80
sVcolorNum
p402
g138
sVvisible
p403
VFalse
p404
sVid
p405
g138
sssVnumOfWaypoints
p406
I0
sVnumOfLeapfrogs
p407
I0
sVnumOfCollectables
p408
I5
s.