(dp0
VnumOfWalls
p1
I19
sVwaypoints
p2
(dp3
sVsquadLeaders
p4
(dp5
sVlidarLights
p6
(dp7
VlightNumber1
p8
(dp9
VxPos
p10
V0.2601329
p11
sVyPos
p12
V2.975
p13
ssVlightNumber0
p14
(dp15
VxPos
p16
V0.475
p17
sVyPos
p18
V1.009375
p19
ssVlightNumber2
p20
(dp21
VxPos
p22
V-0.475
p23
sVyPos
p24
V1.290533
p25
sssVleapfrogs
p26
(dp27
sVglobalData
p28
(dp29
VidCounter
p30
V145
p31
ssVnumOfLidarLights
p32
I3
sVplayer
p33
(dp34
VisHolding
p35
VFalse
p36
sVxPos
p37
V0
p38
sVheldObjID
p39
Vnothing
p40
sVyPos
p41
V0.5
p42
ssVwalls
p43
(dp44
VwallNumber10
p45
(dp46
Vwidth
p47
V2
p48
sVxPos
p49
V-1.5
p50
sVyPos
p51
g48
sVheight
p52
V0.05
p53
ssVwallNumber11
p54
(dp55
Vwidth
p56
g38
sVxPos
p57
V-2.5
p58
sVyPos
p59
V1
p60
sVheight
p61
V0.05
p62
ssVwallNumber12
p63
(dp64
Vwidth
p65
V1.4
p66
sVxPos
p67
V-1.2
p68
sVyPos
p69
g60
sVheight
p70
V0.05
p71
ssVwallNumber13
p72
(dp73
Vwidth
p74
V0.05
p75
sVxPos
p76
V-2.5
p77
sVyPos
p78
V1.5
p79
sVheight
p80
g60
ssVwallNumber14
p81
(dp82
Vwidth
p83
V0.05
p84
sVxPos
p85
V-0.5
p86
sVyPos
p87
V1.5
p88
sVheight
p89
g60
ssVwallNumber15
p90
(dp91
Vwidth
p92
V7
p93
sVxPos
p94
g38
sVyPos
p95
V3
p96
sVheight
p97
V0.05
p98
ssVwallNumber16
p99
(dp100
Vwidth
p101
g93
sVxPos
p102
g38
sVyPos
p103
V-2
p104
sVheight
p105
V0.05
p106
ssVwallNumber17
p107
(dp108
Vwidth
p109
V0.05
p110
sVxPos
p111
V-3.5
p112
sVyPos
p113
V0.5
p114
sVheight
p115
V5
p116
ssVwallNumber18
p117
(dp118
Vwidth
p119
V0.05
p120
sVxPos
p121
V3.5
p122
sVyPos
p123
V0.5
p124
sVheight
p125
g116
ssVwallNumber8
p126
(dp127
Vwidth
p128
V0.05
p129
sVxPos
p130
V-2.5
p131
sVyPos
p132
V-0.5
p133
sVheight
p134
g60
ssVwallNumber9
p135
(dp136
Vwidth
p137
V0.05
p138
sVxPos
p139
V-0.5
p140
sVyPos
p141
V-0.5
p142
sVheight
p143
g60
ssVwallNumber6
p144
(dp145
Vwidth
p146
V1.4
p147
sVxPos
p148
V-1.2
p149
sVyPos
p150
g38
sVheight
p151
V0.05
p152
ssVwallNumber7
p153
(dp154
Vwidth
p155
g48
sVxPos
p156
V-1.5
p157
sVyPos
p158
V-1
p159
sVheight
p160
V0.05
p161
ssVwallNumber4
p162
(dp163
Vwidth
p164
V0.05
p165
sVxPos
p166
V2.5
p167
sVyPos
p168
V0.5
p169
sVheight
p170
g96
ssVwallNumber5
p171
(dp172
Vwidth
p173
g38
sVxPos
p174
V-2.5
p175
sVyPos
p176
g38
sVheight
p177
V0.05
p178
ssVwallNumber2
p179
(dp180
Vwidth
p181
V0.05
p182
sVxPos
p183
V0.5
p184
sVyPos
p185
V-1
p186
sVheight
p187
g38
ssVwallNumber3
p188
(dp189
Vwidth
p190
V0.05
p191
sVxPos
p192
V0.5
p193
sVyPos
p194
V0.8
p195
sVheight
p196
V2.4
p197
ssVwallNumber0
p198
(dp199
Vwidth
p200
g48
sVxPos
p201
V1.5
p202
sVyPos
p203
g48
sVheight
p204
V0.05
p205
ssVwallNumber1
p206
(dp207
Vwidth
p208
g48
sVxPos
p209
V1.5
p210
sVyPos
p211
V-1
p212
sVheight
p213
V0.05
p214
sssVnumOfSquadLeaders
p215
I0
sVcollectables
p216
(dp217
VcollectableNumber1
p218
(dp219
VxPos
p220
g60
sVspriteNum
p221
g60
sVyPos
p222
V1.5
p223
sVlayer
p224
g38
sVcolorNum
p225
g60
sVvisible
p226
VFalse
p227
sVid
p228
V141
p229
ssVcollectableNumber0
p230
(dp231
VxPos
p232
g48
sVspriteNum
p233
g38
sVyPos
p234
V0.5
p235
sVlayer
p236
g38
sVcolorNum
p237
g38
sVvisible
p238
VFalse
p239
sVid
p240
V140
p241
ssVcollectableNumber3
p242
(dp243
VxPos
p244
V-1
p245
sVspriteNum
p246
g96
sVyPos
p247
V-0.5
p248
sVlayer
p249
g48
sVcolorNum
p250
g96
sVvisible
p251
VTrue
p252
sVid
p253
V143
p254
ssVcollectableNumber2
p255
(dp256
VxPos
p257
g48
sVspriteNum
p258
g48
sVyPos
p259
V1.5
p260
sVlayer
p261
g38
sVcolorNum
p262
g48
sVvisible
p263
VFalse
p264
sVid
p265
V142
p266
ssVcollectableNumber4
p267
(dp268
VxPos
p269
V-1
p270
sVspriteNum
p271
V4
p272
sVyPos
p273
V1.5
p274
sVlayer
p275
g38
sVcolorNum
p276
g272
sVvisible
p277
VFalse
p278
sVid
p279
V144
p280
sssVnumOfWaypoints
p281
I0
sVnumOfLeapfrogs
p282
I0
sVnumOfCollectables
p283
I5
s.