(dp0
VnumOfWalls
p1
I24
sVwaypoints
p2
(dp3
sVsquadLeaders
p4
(dp5
sVlidarLights
p6
(dp7
VlightNumber11
p8
(dp9
VxPos
p10
V0.1550287
p11
sVyPos
p12
V1.975
p13
ssVlightNumber10
p14
(dp15
VxPos
p16
V0.4429448
p17
sVyPos
p18
V0.975
p19
ssVlightNumber13
p20
(dp21
VxPos
p22
V-1.475
p23
sVyPos
p24
V1.095938
p25
ssVlightNumber12
p26
(dp27
VxPos
p28
V-0.3
p29
sVyPos
p30
V0.9992838
p31
ssVlightNumber15
p32
(dp33
VxPos
p34
V-0.475
p35
sVyPos
p36
V-0.1079718
p37
ssVlightNumber14
p38
(dp39
VxPos
p40
V-1.475
p41
sVyPos
p42
V0.1047757
p43
ssVlightNumber17
p44
(dp45
VxPos
p46
V1.553656
p47
sVyPos
p48
V0.02500001
p49
ssVlightNumber16
p50
(dp51
VxPos
p52
V0.3451076
p53
sVyPos
p54
V0.02500004
p55
ssVlightNumber9
p56
(dp57
VxPos
p58
V1.475
p59
sVyPos
p60
V0.7600825
p61
ssVlightNumber8
p62
(dp63
VxPos
p64
V0.9322399
p65
sVyPos
p66
V0.02500001
p67
ssVlightNumber1
p68
(dp69
VxPos
p70
V0.4229496
p71
sVyPos
p72
V1.975
p73
ssVlightNumber0
p74
(dp75
VxPos
p76
V1.475
p77
sVyPos
p78
V1.611492
p79
ssVlightNumber3
p80
(dp81
VxPos
p82
V-1.475
p83
sVyPos
p84
V1.421682
p85
ssVlightNumber2
p86
(dp87
VxPos
p88
V-0.475
p89
sVyPos
p90
V1.737418
p91
ssVlightNumber5
p92
(dp93
VxPos
p94
V-1.475
p95
sVyPos
p96
V-0.8280957
p97
ssVlightNumber4
p98
(dp99
VxPos
p100
V-2.475
p101
sVyPos
p102
V0.2834654
p103
ssVlightNumber7
p104
(dp105
VxPos
p106
V0.2316729
p107
sVyPos
p108
V0.02499998
p109
ssVlightNumber6
p110
(dp111
VxPos
p112
V-0.2867108
p113
sVyPos
p114
V-0.975
p115
sssVleapfrogs
p116
(dp117
sVglobalData
p118
(dp119
VidCounter
p120
V60
p121
ssVnumOfLidarLights
p122
I18
sVplayer
p123
(dp124
VisHolding
p125
VFalse
p126
sVxPos
p127
V0
p128
sVheldObjID
p129
Vnothing
p130
sVyPos
p131
V0.5
p132
ssVwalls
p133
(dp134
VwallNumber21
p135
(dp136
Vwidth
p137
V7
p138
sVxPos
p139
g128
sVyPos
p140
V-2
p141
sVheight
p142
V0.05
p143
ssVwallNumber20
p144
(dp145
Vwidth
p146
g138
sVxPos
p147
g128
sVyPos
p148
V3
p149
sVheight
p150
V0.05
p151
ssVwallNumber23
p152
(dp153
Vwidth
p154
V0.05
p155
sVxPos
p156
V3.5
p157
sVyPos
p158
V0.5
p159
sVheight
p160
V5
p161
ssVwallNumber22
p162
(dp163
Vwidth
p164
V0.05
p165
sVxPos
p166
V-3.5
p167
sVyPos
p168
V0.5
p169
sVheight
p170
g161
ssVwallNumber10
p171
(dp172
Vwidth
p173
V1
p174
sVxPos
p175
V2
p176
sVyPos
p177
g176
sVheight
p178
V0.05
p179
ssVwallNumber11
p180
(dp181
Vwidth
p182
g174
sVxPos
p183
g176
sVyPos
p184
g128
sVheight
p185
V0.05
p186
ssVwallNumber12
p187
(dp188
Vwidth
p189
V0.05
p190
sVxPos
p191
V1.5
p192
sVyPos
p193
g128
sVheight
p194
g128
ssVwallNumber13
p195
(dp196
Vwidth
p197
V0.05
p198
sVxPos
p199
V1.5
p200
sVyPos
p201
V1.3
p202
sVheight
p203
V1.4
p204
ssVwallNumber14
p205
(dp206
Vwidth
p207
V0.05
p208
sVxPos
p209
V2.5
p210
sVyPos
p211
g174
sVheight
p212
g176
ssVwallNumber15
p213
(dp214
Vwidth
p215
g174
sVxPos
p216
g128
sVyPos
p217
g176
sVheight
p218
V0.05
p219
ssVwallNumber16
p220
(dp221
Vwidth
p222
V0.2
p223
sVxPos
p224
V-0.4
p225
sVyPos
p226
g174
sVheight
p227
V0.05
p228
ssVwallNumber17
p229
(dp230
Vwidth
p231
V0.2
p232
sVxPos
p233
V0.4
p234
sVyPos
p235
g174
sVheight
p236
V0.05
p237
ssVwallNumber18
p238
(dp239
Vwidth
p240
V0.05
p241
sVxPos
p242
V-0.5
p243
sVyPos
p244
V1.5
p245
sVheight
p246
g174
ssVwallNumber19
p247
(dp248
Vwidth
p249
V0.05
p250
sVxPos
p251
V0.5
p252
sVyPos
p253
V1.5
p254
sVheight
p255
g174
ssVwallNumber8
p256
(dp257
Vwidth
p258
V0.05
p259
sVxPos
p260
V-0.5
p261
sVyPos
p262
V-0.5
p263
sVheight
p264
g174
ssVwallNumber9
p265
(dp266
Vwidth
p267
V0.05
p268
sVxPos
p269
V2.5
p270
sVyPos
p271
V-0.5
p272
sVheight
p273
g174
ssVwallNumber6
p274
(dp275
Vwidth
p276
V2.4
p277
sVxPos
p278
V1.3
p279
sVyPos
p280
g128
sVheight
p281
V0.05
p282
ssVwallNumber7
p283
(dp284
Vwidth
p285
g149
sVxPos
p286
g174
sVyPos
p287
V-1
p288
sVheight
p289
V0.05
p290
ssVwallNumber4
p291
(dp292
Vwidth
p293
V0.05
p294
sVxPos
p295
V-1.5
p296
sVyPos
p297
V1.4
p298
sVheight
p299
V1.2
p300
ssVwallNumber5
p301
(dp302
Vwidth
p303
g128
sVxPos
p304
V-0.5
p305
sVyPos
p306
g128
sVheight
p307
V0.05
p308
ssVwallNumber2
p309
(dp310
Vwidth
p311
V0.05
p312
sVxPos
p313
V-2.5
p314
sVyPos
p315
V0.5
p316
sVheight
p317
g149
ssVwallNumber3
p318
(dp319
Vwidth
p320
V0.05
p321
sVxPos
p322
V-1.5
p323
sVyPos
p324
V-0.4
p325
sVheight
p326
V1.2
p327
ssVwallNumber0
p328
(dp329
Vwidth
p330
g174
sVxPos
p331
V-2
p332
sVyPos
p333
g176
sVheight
p334
V0.05
p335
ssVwallNumber1
p336
(dp337
Vwidth
p338
g174
sVxPos
p339
V-2
p340
sVyPos
p341
V-1
p342
sVheight
p343
V0.05
p344
sssVnumOfSquadLeaders
p345
I0
sVcollectables
p346
(dp347
VcollectableNumber1
p348
(dp349
VxPos
p350
g176
sVspriteNum
p351
g174
sVyPos
p352
V-0.5
p353
sVlayer
p354
g128
sVcolorNum
p355
g174
sVvisible
p356
VFalse
p357
sVid
p358
V56
p359
ssVcollectableNumber0
p360
(dp361
VxPos
p362
g128
sVspriteNum
p363
g128
sVyPos
p364
V-0.5
p365
sVlayer
p366
g176
sVcolorNum
p367
g128
sVvisible
p368
VTrue
p369
sVid
p370
V55
p371
ssVcollectableNumber3
p372
(dp373
VxPos
p374
g176
sVspriteNum
p375
g149
sVyPos
p376
V0.5
p377
sVlayer
p378
g128
sVcolorNum
p379
g149
sVvisible
p380
VFalse
p381
sVid
p382
V58
p383
ssVcollectableNumber2
p384
(dp385
VxPos
p386
V-2
p387
sVspriteNum
p388
g176
sVyPos
p389
V1.5
p390
sVlayer
p391
g128
sVcolorNum
p392
g176
sVvisible
p393
VFalse
p394
sVid
p395
V57
p396
ssVcollectableNumber4
p397
(dp398
VxPos
p399
g176
sVspriteNum
p400
V4
p401
sVyPos
p402
V1.5
p403
sVlayer
p404
g128
sVcolorNum
p405
g401
sVvisible
p406
VFalse
p407
sVid
p408
V59
p409
sssVnumOfWaypoints
p410
I0
sVnumOfLeapfrogs
p411
I0
sVnumOfCollectables
p412
I5
s.