(dp0
VnumOfWalls
p1
I14
sVwaypoints
p2
(dp3
sVsquadLeaders
p4
(dp5
sVlidarLights
p6
(dp7
VlightNumber11
p8
(dp9
VxPos
p10
V0.2601329
p11
sVyPos
p12
V2.975
p13
ssVlightNumber10
p14
(dp15
VxPos
p16
V0.475
p17
sVyPos
p18
V1.009375
p19
ssVlightNumber9
p20
(dp21
VxPos
p22
V0.475
p23
sVyPos
p24
V0.5837554
p25
ssVlightNumber8
p26
(dp27
VxPos
p28
V0.475
p29
sVyPos
p30
V0.2579754
p31
ssVlightNumber1
p32
(dp33
VxPos
p34
V0.709695
p35
sVyPos
p36
V2.975
p37
ssVlightNumber0
p38
(dp39
VxPos
p40
V0.475
p41
sVyPos
p42
V0.8579382
p43
ssVlightNumber3
p44
(dp45
VxPos
p46
V-0.475
p47
sVyPos
p48
V0.796813
p49
ssVlightNumber2
p50
(dp51
VxPos
p52
V-0.475
p53
sVyPos
p54
V1.737418
p55
ssVlightNumber5
p56
(dp57
VxPos
p58
V-0.475
p59
sVyPos
p60
V0.07230815
p61
ssVlightNumber4
p62
(dp63
VxPos
p64
V-0.475
p65
sVyPos
p66
V0.4584428
p67
ssVlightNumber7
p68
(dp69
VxPos
p70
V0.7194053
p71
sVyPos
p72
V-0.975
p73
ssVlightNumber6
p74
(dp75
VxPos
p76
V-0.481091
p77
sVyPos
p78
V-1.975
p79
sssVleapfrogs
p80
(dp81
sVglobalData
p82
(dp83
VidCounter
p84
V60
p85
ssVnumOfLidarLights
p86
I12
sVplayer
p87
(dp88
VisHolding
p89
VFalse
p90
sVxPos
p91
V0
p92
sVheldObjID
p93
Vnothing
p94
sVyPos
p95
V0.5
p96
ssVwalls
p97
(dp98
VwallNumber10
p99
(dp100
Vwidth
p101
V7
p102
sVxPos
p103
g92
sVyPos
p104
V3
p105
sVheight
p106
V0.05
p107
ssVwallNumber11
p108
(dp109
Vwidth
p110
g102
sVxPos
p111
g92
sVyPos
p112
V-2
p113
sVheight
p114
V0.05
p115
ssVwallNumber12
p116
(dp117
Vwidth
p118
V0.05
p119
sVxPos
p120
V-3.5
p121
sVyPos
p122
V0.5
p123
sVheight
p124
V5
p125
ssVwallNumber13
p126
(dp127
Vwidth
p128
V0.05
p129
sVxPos
p130
V3.5
p131
sVyPos
p132
V0.5
p133
sVheight
p134
g125
ssVwallNumber8
p135
(dp136
Vwidth
p137
V0.05
p138
sVxPos
p139
V0.5
p140
sVyPos
p141
V0.8
p142
sVheight
p143
V2.4
p144
ssVwallNumber9
p145
(dp146
Vwidth
p147
V0.05
p148
sVxPos
p149
V2.5
p150
sVyPos
p151
V0.5
p152
sVheight
p153
g105
ssVwallNumber6
p154
(dp155
Vwidth
p156
V2
p157
sVxPos
p158
V1.5
p159
sVyPos
p160
V-1
p161
sVheight
p162
V0.05
p163
ssVwallNumber7
p164
(dp165
Vwidth
p166
V0.05
p167
sVxPos
p168
V0.5
p169
sVyPos
p170
V-1
p171
sVheight
p172
g92
ssVwallNumber4
p173
(dp174
Vwidth
p175
V0.05
p176
sVxPos
p177
V-0.5
p178
sVyPos
p179
V0.8
p180
sVheight
p181
V2.4
p182
ssVwallNumber5
p183
(dp184
Vwidth
p185
g157
sVxPos
p186
V1.5
p187
sVyPos
p188
g157
sVheight
p189
V0.05
p190
ssVwallNumber2
p191
(dp192
Vwidth
p193
V0.05
p194
sVxPos
p195
V-2.5
p196
sVyPos
p197
V0.5
p198
sVheight
p199
g105
ssVwallNumber3
p200
(dp201
Vwidth
p202
V0.05
p203
sVxPos
p204
V-0.5
p205
sVyPos
p206
V-1
p207
sVheight
p208
g92
ssVwallNumber0
p209
(dp210
Vwidth
p211
g157
sVxPos
p212
V-1.5
p213
sVyPos
p214
g157
sVheight
p215
V0.05
p216
ssVwallNumber1
p217
(dp218
Vwidth
p219
g157
sVxPos
p220
V-1.5
p221
sVyPos
p222
V-1
p223
sVheight
p224
V0.05
p225
sssVnumOfSquadLeaders
p226
I0
sVcollectables
p227
(dp228
VcollectableNumber1
p229
(dp230
VxPos
p231
V-2
p232
sVspriteNum
p233
V1
p234
sVyPos
p235
V-0.5
p236
sVlayer
p237
g92
sVcolorNum
p238
g234
sVvisible
p239
VFalse
p240
sVid
p241
V56
p242
ssVcollectableNumber0
p243
(dp244
VxPos
p245
V-1
p246
sVspriteNum
p247
g92
sVyPos
p248
V1.5
p249
sVlayer
p250
g92
sVcolorNum
p251
g92
sVvisible
p252
VFalse
p253
sVid
p254
V55
p255
ssVcollectableNumber3
p256
(dp257
VxPos
p258
g157
sVspriteNum
p259
g105
sVyPos
p260
V0.5
p261
sVlayer
p262
g92
sVcolorNum
p263
g105
sVvisible
p264
VFalse
p265
sVid
p266
V58
p267
ssVcollectableNumber2
p268
(dp269
VxPos
p270
V-2
p271
sVspriteNum
p272
g157
sVyPos
p273
V0.5
p274
sVlayer
p275
g92
sVcolorNum
p276
g157
sVvisible
p277
VFalse
p278
sVid
p279
V57
p280
ssVcollectableNumber4
p281
(dp282
VxPos
p283
g234
sVspriteNum
p284
V4
p285
sVyPos
p286
V1.5
p287
sVlayer
p288
g92
sVcolorNum
p289
g285
sVvisible
p290
VFalse
p291
sVid
p292
V59
p293
sssVnumOfWaypoints
p294
I0
sVnumOfLeapfrogs
p295
I0
sVnumOfCollectables
p296
I5
s.