(dp0
VnumOfWalls
p1
I29
sVwaypoints
p2
(dp3
sVsquadLeaders
p4
(dp5
sVlidarLights
p6
(dp7
VlightNumber11
p8
(dp9
VxPos
p10
V-0.2854089
p11
sVyPos
p12
V0.975
p13
ssVlightNumber10
p14
(dp15
VxPos
p16
V0.0499245
p17
sVyPos
p18
V0.975
p19
ssVlightNumber13
p20
(dp21
VxPos
p22
V-0.475
p23
sVyPos
p24
V0.3727244
p25
ssVlightNumber12
p26
(dp27
VxPos
p28
V-0.475
p29
sVyPos
p30
V0.6919123
p31
ssVlightNumber15
p32
(dp33
VxPos
p34
V-0.008291246
p35
sVyPos
p36
V0.02499998
p37
ssVlightNumber14
p38
(dp39
VxPos
p40
V-0.3711109
p41
sVyPos
p42
V0.02500001
p43
ssVlightNumber9
p44
(dp45
VxPos
p46
V0.4429448
p47
sVyPos
p48
V0.975
p49
ssVlightNumber8
p50
(dp51
VxPos
p52
V3.475
p53
sVyPos
p54
V1.112737
p55
ssVlightNumber1
p56
(dp57
VxPos
p58
V-0.1823354
p59
sVyPos
p60
V0.975
p61
ssVlightNumber0
p62
(dp63
VxPos
p64
V0.1362041
p65
sVyPos
p66
V0.975
p67
ssVlightNumber3
p68
(dp69
VxPos
p70
V-0.475
p71
sVyPos
p72
V0.4584428
p73
ssVlightNumber2
p74
(dp75
VxPos
p76
V-0.475
p77
sVyPos
p78
V0.796813
p79
ssVlightNumber5
p80
(dp81
VxPos
p82
V-0.09233059
p83
sVyPos
p84
V0.02500001
p85
ssVlightNumber4
p86
(dp87
VxPos
p88
V-0.475
p89
sVyPos
p90
V0.07230815
p91
ssVlightNumber7
p92
(dp93
VxPos
p94
V2.475
p95
sVyPos
p96
V-0.7610754
p97
ssVlightNumber6
p98
(dp99
VxPos
p100
V0.2316729
p101
sVyPos
p102
V0.02499998
p103
sssVleapfrogs
p104
(dp105
sVglobalData
p106
(dp107
VidCounter
p108
V55
p109
ssVnumOfLidarLights
p110
I16
sVplayer
p111
(dp112
VisHolding
p113
VFalse
p114
sVxPos
p115
V0
p116
sVheldObjID
p117
Vnothing
p118
sVyPos
p119
V0.5
p120
ssVwalls
p121
(dp122
VwallNumber28
p123
(dp124
Vwidth
p125
V0.05
p126
sVxPos
p127
V3.5
p128
sVyPos
p129
V0.5
p130
sVheight
p131
V5
p132
ssVwallNumber21
p133
(dp134
Vwidth
p135
V1
p136
sVxPos
p137
g116
sVyPos
p138
g116
sVheight
p139
V0.05
p140
ssVwallNumber20
p141
(dp142
Vwidth
p143
g136
sVxPos
p144
g116
sVyPos
p145
g136
sVheight
p146
V0.05
p147
ssVwallNumber23
p148
(dp149
Vwidth
p150
V0.05
p151
sVxPos
p152
V0.5
p153
sVyPos
p154
V0.09999999
p155
sVheight
p156
V0.2
p157
ssVwallNumber22
p158
(dp159
Vwidth
p160
V0.05
p161
sVxPos
p162
V-0.5
p163
sVyPos
p164
V0.5
p165
sVheight
p166
g136
ssVwallNumber25
p167
(dp168
Vwidth
p169
V7
p170
sVxPos
p171
g116
sVyPos
p172
V3
p173
sVheight
p174
V0.05
p175
ssVwallNumber24
p176
(dp177
Vwidth
p178
V0.05
p179
sVxPos
p180
V0.5
p181
sVyPos
p182
V0.9
p183
sVheight
p184
V0.2
p185
ssVwallNumber27
p186
(dp187
Vwidth
p188
V0.05
p189
sVxPos
p190
V-3.5
p191
sVyPos
p192
V0.5
p193
sVheight
p194
g132
ssVwallNumber26
p195
(dp196
Vwidth
p197
g170
sVxPos
p198
g116
sVyPos
p199
V-2
p200
sVheight
p201
V0.05
p202
ssVwallNumber10
p203
(dp204
Vwidth
p205
g173
sVxPos
p206
V-1
p207
sVyPos
p208
V2
p209
sVheight
p210
V0.05
p211
ssVwallNumber11
p212
(dp213
Vwidth
p214
V1.2
p215
sVxPos
p216
V-1.9
p217
sVyPos
p218
g136
sVheight
p219
V0.05
p220
ssVwallNumber12
p221
(dp222
Vwidth
p223
V1.2
p224
sVxPos
p225
V-0.1
p226
sVyPos
p227
g136
sVheight
p228
V0.05
p229
ssVwallNumber13
p230
(dp231
Vwidth
p232
V0.05
p233
sVxPos
p234
V-2.5
p235
sVyPos
p236
V1.5
p237
sVheight
p238
g136
ssVwallNumber14
p239
(dp240
Vwidth
p241
V0.05
p242
sVxPos
p243
V0.5
p244
sVyPos
p245
V1.5
p246
sVheight
p247
g136
ssVwallNumber15
p248
(dp249
Vwidth
p250
V1.2
p251
sVxPos
p252
V0.1
p253
sVyPos
p254
g116
sVheight
p255
V0.05
p256
ssVwallNumber16
p257
(dp258
Vwidth
p259
V1.2
p260
sVxPos
p261
V1.9
p262
sVyPos
p263
g116
sVheight
p264
V0.05
p265
ssVwallNumber17
p266
(dp267
Vwidth
p268
g173
sVxPos
p269
g136
sVyPos
p270
V-1
p271
sVheight
p272
V0.05
p273
ssVwallNumber18
p274
(dp275
Vwidth
p276
V0.05
p277
sVxPos
p278
V-0.5
p279
sVyPos
p280
V-0.5
p281
sVheight
p282
g136
ssVwallNumber19
p283
(dp284
Vwidth
p285
V0.05
p286
sVxPos
p287
V2.5
p288
sVyPos
p289
V-0.5
p290
sVheight
p291
g136
ssVwallNumber8
p292
(dp293
Vwidth
p294
V0.05
p295
sVxPos
p296
V-2.5
p297
sVyPos
p298
V-0.5
p299
sVheight
p300
g136
ssVwallNumber9
p301
(dp302
Vwidth
p303
V0.05
p304
sVxPos
p305
V-1.5
p306
sVyPos
p307
V-0.5
p308
sVheight
p309
g136
ssVwallNumber6
p310
(dp311
Vwidth
p312
V0.2
p313
sVxPos
p314
V-1.6
p315
sVyPos
p316
g116
sVheight
p317
V0.05
p318
ssVwallNumber7
p319
(dp320
Vwidth
p321
g136
sVxPos
p322
V-2
p323
sVyPos
p324
V-1
p325
sVheight
p326
V0.05
p327
ssVwallNumber4
p328
(dp329
Vwidth
p330
V0.05
p331
sVxPos
p332
V2.5
p333
sVyPos
p334
V1.5
p335
sVheight
p336
g136
ssVwallNumber5
p337
(dp338
Vwidth
p339
V0.2
p340
sVxPos
p341
V-2.4
p342
sVyPos
p343
g116
sVheight
p344
V0.05
p345
ssVwallNumber2
p346
(dp347
Vwidth
p348
V0.2
p349
sVxPos
p350
V2.4
p351
sVyPos
p352
g136
sVheight
p353
V0.05
p354
ssVwallNumber3
p355
(dp356
Vwidth
p357
V0.05
p358
sVxPos
p359
V1.5
p360
sVyPos
p361
V1.5
p362
sVheight
p363
g136
ssVwallNumber0
p364
(dp365
Vwidth
p366
g136
sVxPos
p367
g209
sVyPos
p368
g209
sVheight
p369
V0.05
p370
ssVwallNumber1
p371
(dp372
Vwidth
p373
V0.2
p374
sVxPos
p375
V1.6
p376
sVyPos
p377
g136
sVheight
p378
V0.05
p379
sssVnumOfSquadLeaders
p380
I0
sVcollectables
p381
(dp382
VcollectableNumber1
p383
(dp384
VxPos
p385
g116
sVspriteNum
p386
g136
sVyPos
p387
V0.5
p388
sVlayer
p389
g209
sVcolorNum
p390
g136
sVvisible
p391
VTrue
p392
sVid
p393
V51
p394
ssVcollectableNumber0
p395
(dp396
VxPos
p397
V-2
p398
sVspriteNum
p399
g116
sVyPos
p400
V1.5
p401
sVlayer
p402
g116
sVcolorNum
p403
g116
sVvisible
p404
VFalse
p405
sVid
p406
V50
p407
ssVcollectableNumber3
p408
(dp409
VxPos
p410
g209
sVspriteNum
p411
g173
sVyPos
p412
V1.5
p413
sVlayer
p414
g116
sVcolorNum
p415
g173
sVvisible
p416
VFalse
p417
sVid
p418
V53
p419
ssVcollectableNumber2
p420
(dp421
VxPos
p422
V-2
p423
sVspriteNum
p424
g209
sVyPos
p425
V-0.5
p426
sVlayer
p427
g116
sVcolorNum
p428
g209
sVvisible
p429
VFalse
p430
sVid
p431
V52
p432
ssVcollectableNumber4
p433
(dp434
VxPos
p435
V-1
p436
sVspriteNum
p437
V4
p438
sVyPos
p439
V1.5
p440
sVlayer
p441
g116
sVcolorNum
p442
g438
sVvisible
p443
VFalse
p444
sVid
p445
V54
p446
sssVnumOfWaypoints
p447
I0
sVnumOfLeapfrogs
p448
I0
sVnumOfCollectables
p449
I5
s.