(dp0
VnumOfWalls
p1
I14
sVwaypoints
p2
(dp3
sVsquadLeaders
p4
(dp5
sVlidarLights
p6
(dp7
VlightNumber11
p8
(dp9
VxPos
p10
V0.2601329
p11
sVyPos
p12
V2.975
p13
ssVlightNumber10
p14
(dp15
VxPos
p16
V0.475
p17
sVyPos
p18
V1.009375
p19
ssVlightNumber12
p20
(dp21
VxPos
p22
V-0.475
p23
sVyPos
p24
V1.290533
p25
ssVlightNumber9
p26
(dp27
VxPos
p28
V0.475
p29
sVyPos
p30
V0.5837554
p31
ssVlightNumber8
p32
(dp33
VxPos
p34
V0.475
p35
sVyPos
p36
V0.2579754
p37
ssVlightNumber1
p38
(dp39
VxPos
p40
V0.709695
p41
sVyPos
p42
V2.975
p43
ssVlightNumber0
p44
(dp45
VxPos
p46
V0.475
p47
sVyPos
p48
V0.8579382
p49
ssVlightNumber3
p50
(dp51
VxPos
p52
V-0.4801002
p53
sVyPos
p54
V0.8
p55
ssVlightNumber2
p56
(dp57
VxPos
p58
V-0.475
p59
sVyPos
p60
V1.737418
p61
ssVlightNumber5
p62
(dp63
VxPos
p64
V-0.475
p65
sVyPos
p66
V0.07230815
p67
ssVlightNumber4
p68
(dp69
VxPos
p70
V-2.475
p71
sVyPos
p72
V0.2834654
p73
ssVlightNumber7
p74
(dp75
VxPos
p76
V0.7194053
p77
sVyPos
p78
V-0.975
p79
ssVlightNumber6
p80
(dp81
VxPos
p82
V-0.481091
p83
sVyPos
p84
V-1.975
p85
sssVleapfrogs
p86
(dp87
sVglobalData
p88
(dp89
VidCounter
p90
V165
p91
ssVnumOfLidarLights
p92
I13
sVplayer
p93
(dp94
VisHolding
p95
VFalse
p96
sVxPos
p97
V0
p98
sVheldObjID
p99
Vnothing
p100
sVyPos
p101
V0.5
p102
ssVwalls
p103
(dp104
VwallNumber10
p105
(dp106
Vwidth
p107
V7
p108
sVxPos
p109
g98
sVyPos
p110
V3
p111
sVheight
p112
V0.05
p113
ssVwallNumber11
p114
(dp115
Vwidth
p116
g108
sVxPos
p117
g98
sVyPos
p118
V-2
p119
sVheight
p120
V0.05
p121
ssVwallNumber12
p122
(dp123
Vwidth
p124
V0.05
p125
sVxPos
p126
V-3.5
p127
sVyPos
p128
V0.5
p129
sVheight
p130
V5
p131
ssVwallNumber13
p132
(dp133
Vwidth
p134
V0.05
p135
sVxPos
p136
V3.5
p137
sVyPos
p138
V0.5
p139
sVheight
p140
g131
ssVwallNumber8
p141
(dp142
Vwidth
p143
V0.05
p144
sVxPos
p145
V0.5
p146
sVyPos
p147
V0.8
p148
sVheight
p149
V2.4
p150
ssVwallNumber9
p151
(dp152
Vwidth
p153
V0.05
p154
sVxPos
p155
V2.5
p156
sVyPos
p157
V0.5
p158
sVheight
p159
g111
ssVwallNumber6
p160
(dp161
Vwidth
p162
V2
p163
sVxPos
p164
V1.5
p165
sVyPos
p166
V-1
p167
sVheight
p168
V0.05
p169
ssVwallNumber7
p170
(dp171
Vwidth
p172
V0.05
p173
sVxPos
p174
V0.5
p175
sVyPos
p176
V-1
p177
sVheight
p178
g98
ssVwallNumber4
p179
(dp180
Vwidth
p181
V0.05
p182
sVxPos
p183
V-0.5
p184
sVyPos
p185
V1.4
p186
sVheight
p187
V1.2
p188
ssVwallNumber5
p189
(dp190
Vwidth
p191
g163
sVxPos
p192
V1.5
p193
sVyPos
p194
g163
sVheight
p195
V0.05
p196
ssVwallNumber2
p197
(dp198
Vwidth
p199
V0.05
p200
sVxPos
p201
V-2.5
p202
sVyPos
p203
V0.5
p204
sVheight
p205
g111
ssVwallNumber3
p206
(dp207
Vwidth
p208
V0.05
p209
sVxPos
p210
V-0.5
p211
sVyPos
p212
V-0.4
p213
sVheight
p214
V1.2
p215
ssVwallNumber0
p216
(dp217
Vwidth
p218
g163
sVxPos
p219
V-1.5
p220
sVyPos
p221
g163
sVheight
p222
V0.05
p223
ssVwallNumber1
p224
(dp225
Vwidth
p226
g163
sVxPos
p227
V-1.5
p228
sVyPos
p229
V-1
p230
sVheight
p231
V0.05
p232
sssVnumOfSquadLeaders
p233
I0
sVcollectables
p234
(dp235
VcollectableNumber1
p236
(dp237
VxPos
p238
g163
sVspriteNum
p239
V1
p240
sVyPos
p241
V1.5
p242
sVlayer
p243
g98
sVcolorNum
p244
g240
sVvisible
p245
VFalse
p246
sVid
p247
V161
p248
ssVcollectableNumber0
p249
(dp250
VxPos
p251
V-2
p252
sVspriteNum
p253
g98
sVyPos
p254
V0.5
p255
sVlayer
p256
g98
sVcolorNum
p257
g98
sVvisible
p258
VFalse
p259
sVid
p260
V160
p261
ssVcollectableNumber3
p262
(dp263
VxPos
p264
V-1
p265
sVspriteNum
p266
g111
sVyPos
p267
V1.5
p268
sVlayer
p269
g98
sVcolorNum
p270
g111
sVvisible
p271
VFalse
p272
sVid
p273
V163
p274
ssVcollectableNumber2
p275
(dp276
VxPos
p277
g240
sVspriteNum
p278
g163
sVyPos
p279
V0.5
p280
sVlayer
p281
g98
sVcolorNum
p282
g163
sVvisible
p283
VFalse
p284
sVid
p285
V162
p286
ssVcollectableNumber4
p287
(dp288
VxPos
p289
g163
sVspriteNum
p290
V4
p291
sVyPos
p292
V0.5
p293
sVlayer
p294
g98
sVcolorNum
p295
g291
sVvisible
p296
VFalse
p297
sVid
p298
V164
p299
sssVnumOfWaypoints
p300
I0
sVnumOfLeapfrogs
p301
I0
sVnumOfCollectables
p302
I5
s.