(dp0
VnumOfWalls
p1
I19
sVwaypoints
p2
(dp3
sVsquadLeaders
p4
(dp5
sVlidarLights
p6
(dp7
VlightNumber1
p8
(dp9
VxPos
p10
V-0.475
p11
sVyPos
p12
V1.290533
p13
ssVlightNumber0
p14
(dp15
VxPos
p16
V0.475
p17
sVyPos
p18
V1.009375
p19
ssVlightNumber3
p20
(dp21
VxPos
p22
V-1.475
p23
sVyPos
p24
V0.1047757
p25
ssVlightNumber2
p26
(dp27
VxPos
p28
V-1.475
p29
sVyPos
p30
V1.095938
p31
ssVlightNumber4
p32
(dp33
VxPos
p34
V-0.475
p35
sVyPos
p36
V-0.1079718
p37
sssVleapfrogs
p38
(dp39
sVglobalData
p40
(dp41
VidCounter
p42
V80
p43
ssVnumOfLidarLights
p44
I5
sVplayer
p45
(dp46
VisHolding
p47
VFalse
p48
sVxPos
p49
V0
p50
sVheldObjID
p51
Vnothing
p52
sVyPos
p53
V0.5
p54
ssVwalls
p55
(dp56
VwallNumber10
p57
(dp58
Vwidth
p59
V1
p60
sVxPos
p61
V2
p62
sVyPos
p63
g62
sVheight
p64
V0.05
p65
ssVwallNumber11
p66
(dp67
Vwidth
p68
g60
sVxPos
p69
g62
sVyPos
p70
V-1
p71
sVheight
p72
V0.05
p73
ssVwallNumber12
p74
(dp75
Vwidth
p76
V0.05
p77
sVxPos
p78
V1.5
p79
sVyPos
p80
V-1
p81
sVheight
p82
g50
ssVwallNumber13
p83
(dp84
Vwidth
p85
V0.05
p86
sVxPos
p87
V1.5
p88
sVyPos
p89
V0.8
p90
sVheight
p91
V2.4
p92
ssVwallNumber14
p93
(dp94
Vwidth
p95
V0.05
p96
sVxPos
p97
V2.5
p98
sVyPos
p99
V0.5
p100
sVheight
p101
V3
p102
ssVwallNumber15
p103
(dp104
Vwidth
p105
V7
p106
sVxPos
p107
g50
sVyPos
p108
g102
sVheight
p109
V0.05
p110
ssVwallNumber16
p111
(dp112
Vwidth
p113
g106
sVxPos
p114
g50
sVyPos
p115
V-2
p116
sVheight
p117
V0.05
p118
ssVwallNumber17
p119
(dp120
Vwidth
p121
V0.05
p122
sVxPos
p123
V-3.5
p124
sVyPos
p125
V0.5
p126
sVheight
p127
V5
p128
ssVwallNumber18
p129
(dp130
Vwidth
p131
V0.05
p132
sVxPos
p133
V3.5
p134
sVyPos
p135
V0.5
p136
sVheight
p137
g128
ssVwallNumber8
p138
(dp139
Vwidth
p140
V0.05
p141
sVxPos
p142
V-0.5
p143
sVyPos
p144
V1.4
p145
sVheight
p146
V1.2
p147
ssVwallNumber9
p148
(dp149
Vwidth
p150
V0.05
p151
sVxPos
p152
V0.5
p153
sVyPos
p154
V0.5
p155
sVheight
p156
g102
ssVwallNumber6
p157
(dp158
Vwidth
p159
g60
sVxPos
p160
g50
sVyPos
p161
V-1
p162
sVheight
p163
V0.05
p164
ssVwallNumber7
p165
(dp166
Vwidth
p167
V0.05
p168
sVxPos
p169
V-0.5
p170
sVyPos
p171
V-0.4
p172
sVheight
p173
V1.2
p174
ssVwallNumber4
p175
(dp176
Vwidth
p177
V0.05
p178
sVxPos
p179
V-1.5
p180
sVyPos
p181
g62
sVheight
p182
g50
ssVwallNumber5
p183
(dp184
Vwidth
p185
g60
sVxPos
p186
g50
sVyPos
p187
g62
sVheight
p188
V0.05
p189
ssVwallNumber2
p190
(dp191
Vwidth
p192
V0.05
p193
sVxPos
p194
V-2.5
p195
sVyPos
p196
V0.5
p197
sVheight
p198
g102
ssVwallNumber3
p199
(dp200
Vwidth
p201
V0.05
p202
sVxPos
p203
V-1.5
p204
sVyPos
p205
V0.2
p206
sVheight
p207
V2.4
p208
ssVwallNumber0
p209
(dp210
Vwidth
p211
g60
sVxPos
p212
V-2
p213
sVyPos
p214
g62
sVheight
p215
V0.05
p216
ssVwallNumber1
p217
(dp218
Vwidth
p219
g60
sVxPos
p220
V-2
p221
sVyPos
p222
V-1
p223
sVheight
p224
V0.05
p225
sssVnumOfSquadLeaders
p226
I0
sVcollectables
p227
(dp228
VcollectableNumber1
p229
(dp230
VxPos
p231
g50
sVspriteNum
p232
g60
sVyPos
p233
V1.5
p234
sVlayer
p235
g62
sVcolorNum
p236
g60
sVvisible
p237
VTrue
p238
sVid
p239
V76
p240
ssVcollectableNumber0
p241
(dp242
VxPos
p243
g62
sVspriteNum
p244
g50
sVyPos
p245
V1.5
p246
sVlayer
p247
g50
sVcolorNum
p248
g50
sVvisible
p249
VFalse
p250
sVid
p251
V75
p252
ssVcollectableNumber3
p253
(dp254
VxPos
p255
g62
sVspriteNum
p256
g102
sVyPos
p257
V-0.5
p258
sVlayer
p259
g62
sVcolorNum
p260
g102
sVvisible
p261
VTrue
p262
sVid
p263
V78
p264
ssVcollectableNumber2
p265
(dp266
VxPos
p267
V-2
p268
sVspriteNum
p269
g62
sVyPos
p270
V1.5
p271
sVlayer
p272
g50
sVcolorNum
p273
g62
sVvisible
p274
VFalse
p275
sVid
p276
V77
p277
ssVcollectableNumber4
p278
(dp279
VxPos
p280
g62
sVspriteNum
p281
V4
p282
sVyPos
p283
V0.5
p284
sVlayer
p285
g50
sVcolorNum
p286
g282
sVvisible
p287
VFalse
p288
sVid
p289
V79
p290
sssVnumOfWaypoints
p291
I0
sVnumOfLeapfrogs
p292
I0
sVnumOfCollectables
p293
I5
s.